;******************************************************************************
;* MSP430 G3 C/C++ Codegen                                              PC v21.6.1.LTS *
;* Date/Time created: Wed May 31 19:52:39 2023                                *
;******************************************************************************
	.compiler_opts --abi=eabi --diag_wrap=off --hll_source=on --mem_model:code=large --mem_model:data=large --object_format=elf --silicon_errata=CPU21 --silicon_errata=CPU22 --silicon_errata=CPU23 --silicon_errata=CPU40 --silicon_version=mspx --symdebug:dwarf --symdebug:dwarf_version=3 

$C$DW$CU	.dwtag  DW_TAG_compile_unit
	.dwattr $C$DW$CU, DW_AT_name("../grbl/settings.c")
	.dwattr $C$DW$CU, DW_AT_producer("TI MSP430 G3 C/C++ Codegen PC v21.6.1.LTS Copyright (c) 2003-2018 Texas Instruments Incorporated")
	.dwattr $C$DW$CU, DW_AT_TI_version(0x01)
	.dwattr $C$DW$CU, DW_AT_comp_dir("D:\Administrator\Descargas\MSP430F5529\Debug")
$C$DW$1	.dwtag  DW_TAG_variable
	.dwattr $C$DW$1, DW_AT_name("gc_state")
	.dwattr $C$DW$1, DW_AT_TI_symbol_name("gc_state")
	.dwattr $C$DW$1, DW_AT_type(*$C$DW$T$385)
	.dwattr $C$DW$1, DW_AT_declaration
	.dwattr $C$DW$1, DW_AT_external
	.dwattr $C$DW$1, DW_AT_decl_file("..\grbl\gcode.h")
	.dwattr $C$DW$1, DW_AT_decl_line(0x202)
	.dwattr $C$DW$1, DW_AT_decl_column(0x17)

$C$DW$2	.dwtag  DW_TAG_variable
	.dwattr $C$DW$2, DW_AT_name("tool_table")
	.dwattr $C$DW$2, DW_AT_TI_symbol_name("tool_table")
	.dwattr $C$DW$2, DW_AT_type(*$C$DW$T$133)
	.dwattr $C$DW$2, DW_AT_declaration
	.dwattr $C$DW$2, DW_AT_external
	.dwattr $C$DW$2, DW_AT_decl_file("..\grbl\gcode.h")
	.dwattr $C$DW$2, DW_AT_decl_line(0x206)
	.dwattr $C$DW$2, DW_AT_decl_column(0x14)

$C$DW$3	.dwtag  DW_TAG_variable
	.dwattr $C$DW$3, DW_AT_name("sys")
	.dwattr $C$DW$3, DW_AT_TI_symbol_name("sys")
	.dwattr $C$DW$3, DW_AT_type(*$C$DW$T$1184)
	.dwattr $C$DW$3, DW_AT_declaration
	.dwattr $C$DW$3, DW_AT_external
	.dwattr $C$DW$3, DW_AT_decl_file("..\grbl\system.h")
	.dwattr $C$DW$3, DW_AT_decl_line(0x11b)
	.dwattr $C$DW$3, DW_AT_decl_column(0x11)

$C$DW$4	.dwtag  DW_TAG_variable
	.dwattr $C$DW$4, DW_AT_name("grbl")
	.dwattr $C$DW$4, DW_AT_TI_symbol_name("grbl")
	.dwattr $C$DW$4, DW_AT_type(*$C$DW$T$813)
	.dwattr $C$DW$4, DW_AT_declaration
	.dwattr $C$DW$4, DW_AT_external
	.dwattr $C$DW$4, DW_AT_decl_file("..\grbl\core_handlers.h")
	.dwattr $C$DW$4, DW_AT_decl_line(0x7e)
	.dwattr $C$DW$4, DW_AT_decl_column(0x0f)

$C$DW$5	.dwtag  DW_TAG_variable
	.dwattr $C$DW$5, DW_AT_name("hal")
	.dwattr $C$DW$5, DW_AT_TI_symbol_name("hal")
	.dwattr $C$DW$5, DW_AT_type(*$C$DW$T$814)
	.dwattr $C$DW$5, DW_AT_declaration
	.dwattr $C$DW$5, DW_AT_external
	.dwattr $C$DW$5, DW_AT_decl_file("..\grbl\hal.h")
	.dwattr $C$DW$5, DW_AT_decl_line(0x29f)
	.dwattr $C$DW$5, DW_AT_decl_column(0x13)

	.global	settings
	.common	settings,340,2
$C$DW$6	.dwtag  DW_TAG_variable
	.dwattr $C$DW$6, DW_AT_name("settings")
	.dwattr $C$DW$6, DW_AT_TI_symbol_name("settings")
	.dwattr $C$DW$6, DW_AT_location[DW_OP_addr settings]
	.dwattr $C$DW$6, DW_AT_type(*$C$DW$T$526)
	.dwattr $C$DW$6, DW_AT_external
	.dwattr $C$DW$6, DW_AT_decl_file("../grbl/settings.c")
	.dwattr $C$DW$6, DW_AT_decl_line(0x3b)
	.dwattr $C$DW$6, DW_AT_decl_column(0x0c)

	.global	settings_all
	.sect	".const:settings_all"
	.align	1
	.elfsym	settings_all,SYM_SIZE(1)
settings_all:
	.bits		0x1,1
			; settings_all.$P$T13.defaults @ 0
	.bits		0x1,1
			; settings_all.$P$T13.parameters @ 1
	.bits		0x1,1
			; settings_all.$P$T13.startup_lines @ 2
	.bits		0x1,1
			; settings_all.$P$T13.build_info @ 3
	.bits		0x1,1
			; settings_all.$P$T13.driver_parameters @ 4
	.bits		0,3


$C$DW$7	.dwtag  DW_TAG_variable
	.dwattr $C$DW$7, DW_AT_name("settings_all")
	.dwattr $C$DW$7, DW_AT_TI_symbol_name("settings_all")
	.dwattr $C$DW$7, DW_AT_location[DW_OP_addr settings_all]
	.dwattr $C$DW$7, DW_AT_type(*$C$DW$T$849)
	.dwattr $C$DW$7, DW_AT_external
	.dwattr $C$DW$7, DW_AT_decl_file("../grbl/settings.c")
	.dwattr $C$DW$7, DW_AT_decl_line(0x3d)
	.dwattr $C$DW$7, DW_AT_decl_column(0x1a)

	.global	defaults
	.sect	".const:defaults"
	.align	2
	.elfsym	defaults,SYM_SIZE(340)
defaults:
	.bits		0x15,32
			; defaults.version @ 0
	.float  	$strtod("0x1.47ae14p-7")		; defaults.junction_deviation @ 32
	.float  	$strtod("0x1.0624dep-9")		; defaults.arc_tolerance @ 64
	.float  	$strtod("0x1.99999ap-4")		; defaults.g73_retract @ 96
	.bits		0,16
			; defaults.mode @ 128
	.float  	$strtod("0x1.9p+4")		; defaults.tool_change.feed_rate @ 144
	.float  	$strtod("0x1.9p+7")		; defaults.tool_change.seek_rate @ 176
	.float  	$strtod("0x1.9p+6")		; defaults.tool_change.pulloff_rate @ 208
	.float  	$strtod("0x1.ep+4")		; defaults.tool_change.probing_distance @ 240
	.bits		0,16
			; defaults.tool_change.mode @ 272
	.float  	$strtod("0x1.f4p+7")		; defaults.axis[0].steps_per_mm @ 288
	.float  	$strtod("0x1.f4p+8")		; defaults.axis[0].max_rate @ 320
	.float  	$strtod("0x1.194p+15")		; defaults.axis[0].acceleration @ 352
	.float  	$strtod("-0x1.9p+7")		; defaults.axis[0].max_travel @ 384
	.float  	$strtod("0x0p+0")		; defaults.axis[0].dual_axis_offset @ 416
	.float  	$strtod("0x1.f4p+7")		; defaults.axis[1].steps_per_mm @ 448
	.float  	$strtod("0x1.f4p+8")		; defaults.axis[1].max_rate @ 480
	.float  	$strtod("0x1.194p+15")		; defaults.axis[1].acceleration @ 512
	.float  	$strtod("-0x1.9p+7")		; defaults.axis[1].max_travel @ 544
	.float  	$strtod("0x0p+0")		; defaults.axis[1].dual_axis_offset @ 576
	.float  	$strtod("0x1.f4p+7")		; defaults.axis[2].steps_per_mm @ 608
	.float  	$strtod("0x1.f4p+8")		; defaults.axis[2].max_rate @ 640
	.float  	$strtod("0x1.194p+15")		; defaults.axis[2].acceleration @ 672
	.float  	$strtod("-0x1.9p+7")		; defaults.axis[2].max_travel @ 704
	.float  	$strtod("0x0p+0")		; defaults.axis[2].dual_axis_offset @ 736
	.bits		0,16
			; defaults.control_invert.mask @ 768
	.bits		0,16
			; defaults.control_disable_pullup.mask @ 784
	.bits		0,1
			; defaults.coolant_invert.$P$T1.flood @ 800
	.bits		0,1
			; defaults.coolant_invert.$P$T1.mist @ 801
	.bits		0,14

	.float  	$strtod("0x1.f4p+9")		; defaults.spindle.rpm_max @ 816
	.float  	$strtod("0x0p+0")		; defaults.spindle.rpm_min @ 848
	.float  	$strtod("0x1.388p+12")		; defaults.spindle.pwm_freq @ 880
	.float  	$strtod("0x0p+0")		; defaults.spindle.pwm_period @ 912
	.float  	$strtod("0x0p+0")		; defaults.spindle.pwm_off_value @ 944
	.float  	$strtod("0x0p+0")		; defaults.spindle.pwm_min_value @ 976
	.float  	$strtod("0x1.9p+6")		; defaults.spindle.pwm_max_value @ 1008
	.float  	$strtod("0x0p+0")		; defaults.spindle.at_speed_tolerance @ 1040
	.float  	$strtod("nan")		; defaults.spindle.pwm_piece[0].rpm @ 1072
	.float  	$strtod("0x0p+0")		; defaults.spindle.pwm_piece[0].start @ 1104
	.float  	$strtod("0x0p+0")		; defaults.spindle.pwm_piece[0].end @ 1136
	.float  	$strtod("nan")		; defaults.spindle.pwm_piece[1].rpm @ 1168
	.float  	$strtod("0x0p+0")		; defaults.spindle.pwm_piece[1].start @ 1200
	.float  	$strtod("0x0p+0")		; defaults.spindle.pwm_piece[1].end @ 1232
	.float  	$strtod("nan")		; defaults.spindle.pwm_piece[2].rpm @ 1264
	.float  	$strtod("0x0p+0")		; defaults.spindle.pwm_piece[2].start @ 1296
	.float  	$strtod("0x0p+0")		; defaults.spindle.pwm_piece[2].end @ 1328
	.float  	$strtod("nan")		; defaults.spindle.pwm_piece[3].rpm @ 1360
	.float  	$strtod("0x0p+0")		; defaults.spindle.pwm_piece[3].start @ 1392
	.float  	$strtod("0x0p+0")		; defaults.spindle.pwm_piece[3].end @ 1424
	.float  	$strtod("0x1p+0")		; defaults.spindle.pid.p_gain @ 1456
	.float  	$strtod("0x1.47ae14p-7")		; defaults.spindle.pid.i_gain @ 1488
	.float  	$strtod("0x0p+0")		; defaults.spindle.pid.d_gain @ 1520
	.float  	$strtod("0x0p+0")		; defaults.spindle.pid.p_max_error @ 1552
	.float  	$strtod("0x1.4p+3")		; defaults.spindle.pid.i_max_error @ 1584
	.space	12
	.bits		0,16
			; defaults.spindle.ppr @ 1712
	.bits		0,1
			; defaults.spindle.invert.$P$T2.on @ 1728
	.bits		0,1
			; defaults.spindle.invert.$P$T2.ccw @ 1729
	.bits		0,1
			; defaults.spindle.invert.$P$T2.pwm @ 1730
	.bits		0,5

	.bits		0,2
			; defaults.spindle.flags.$P$T3.pwm_action @ 1736
	.bits		0,6

	.bits		0,8
			; defaults.steppers.step_invert.mask @ 1744
	.bits		0,8
			; defaults.steppers.dir_invert.mask @ 1752
	.bits		0,8
			; defaults.steppers.ganged_dir_invert.mask @ 1760
	.bits		0x7,8
			; defaults.steppers.enable_invert.mask @ 1768
	.bits		0,8
			; defaults.steppers.deenergize.mask @ 1776
	.bits		0,8

	.float  	$strtod("0x1.4p+3")		; defaults.steppers.pulse_microseconds @ 1792
	.float  	$strtod("0x0p+0")		; defaults.steppers.pulse_delay_microseconds @ 1824
	.bits		0x19,16
			; defaults.steppers.idle_lock_time @ 1856
	.bits		0x1,1
			; defaults.status_report.$P$T5.machine_position @ 1872
	.bits		0x1,1
			; defaults.status_report.$P$T5.buffer_state @ 1873
	.bits		0x1,1
			; defaults.status_report.$P$T5.line_numbers @ 1874
	.bits		0x1,1
			; defaults.status_report.$P$T5.feed_speed @ 1875
	.bits		0x1,1
			; defaults.status_report.$P$T5.pin_state @ 1876
	.bits		0x1,1
			; defaults.status_report.$P$T5.work_coord_offset @ 1877
	.bits		0x1,1
			; defaults.status_report.$P$T5.overrides @ 1878
	.bits		0x1,1
			; defaults.status_report.$P$T5.probe_coordinates @ 1879
	.bits		0x1,1
			; defaults.status_report.$P$T5.sync_on_wco_change @ 1880
	.bits		0,1
			; defaults.status_report.$P$T5.parser_state @ 1881
	.bits		0,1
			; defaults.status_report.$P$T5.alarm_substate @ 1882
	.bits		0,5

	.bits		0,1
			; defaults.flags.$P$T6.report_inches @ 1888
	.bits		0,1
			; defaults.flags.$P$T6.restore_overrides @ 1889
	.bits		0,1
			; defaults.flags.$P$T6.unused0 @ 1890
	.bits		0,1
			; defaults.flags.$P$T6.sleep_enable @ 1891
	.bits		0,1
			; defaults.flags.$P$T6.disable_laser_during_hold @ 1892
	.bits		0,1
			; defaults.flags.$P$T6.force_initialization_alarm @ 1893
	.bits		0x1,1
			; defaults.flags.$P$T6.legacy_rt_commands @ 1894
	.bits		0x1,1
			; defaults.flags.$P$T6.restore_after_feed_hold @ 1895
	.bits		0,1
			; defaults.flags.$P$T6.unused1 @ 1896
	.bits		0,1
			; defaults.flags.$P$T6.g92_is_volatile @ 1897
	.bits		0,6

	.bits		0,1
			; defaults.probe.$P$T7.invert_probe_pin @ 1904
	.bits		0,1
			; defaults.probe.$P$T7.disable_probe_pullup @ 1905
	.bits		0,1
			; defaults.probe.$P$T7.invert_connected_pin @ 1906
	.bits		0,1
			; defaults.probe.$P$T7.disable_connected_pullup @ 1907
	.bits		0,1
			; defaults.probe.$P$T7.allow_feed_override @ 1908
	.bits		0,11

	.float  	$strtod("0x1.9p+4")		; defaults.homing.feed_rate @ 1920
	.float  	$strtod("0x1.f4p+8")		; defaults.homing.seek_rate @ 1952
	.float  	$strtod("0x1p+0")		; defaults.homing.pulloff @ 1984
	.bits		0,8
			; defaults.homing.dir_mask.value @ 2016
	.bits		0x1,8
			; defaults.homing.locate_cycles @ 2024
	.bits		0xfa,16
			; defaults.homing.debounce_delay @ 2032
	.bits		0,8
			; defaults.homing.flags.value @ 2048
	.bits		0x4,8
			; defaults.homing.cycle[0].mask @ 2056
	.bits		0x3,8
			; defaults.homing.cycle[1].mask @ 2064
	.bits		0,8
			; defaults.homing.cycle[2].mask @ 2072
	.float  	$strtod("0x1.4p+2")		; defaults.homing.dual_axis.fail_length_percent @ 2080
	.float  	$strtod("0x1.9p+4")		; defaults.homing.dual_axis.fail_distance_max @ 2112
	.float  	$strtod("0x1.4p+1")		; defaults.homing.dual_axis.fail_distance_min @ 2144
	.bits		0,1
			; defaults.limits.flags.$P$T9.hard_enabled @ 2176
	.bits		0,1
			; defaults.limits.flags.$P$T9.soft_enabled @ 2177
	.bits		0,1
			; defaults.limits.flags.$P$T9.check_at_init @ 2178
	.bits		0,1
			; defaults.limits.flags.$P$T9.jog_soft_limited @ 2179
	.bits		0,1
			; defaults.limits.flags.$P$T9.two_switches @ 2180
	.bits		0,3

	.bits		0,8
			; defaults.limits.invert.mask @ 2184
	.bits		0,8
			; defaults.limits.disable_pullup.mask @ 2192
	.bits		0,8

	.bits		0,1
			; defaults.parking.flags.$P$T10.enabled @ 2208
	.bits		0,1
			; defaults.parking.flags.$P$T10.deactivate_upon_init @ 2209
	.bits		0,1
			; defaults.parking.flags.$P$T10.enable_override_control @ 2210
	.bits		0,5

	.bits		0x2,8
			; defaults.parking.axis @ 2216
	.float  	$strtod("-0x1.4p+2")		; defaults.parking.target @ 2224
	.float  	$strtod("0x1.f4p+8")		; defaults.parking.rate @ 2256
	.float  	$strtod("0x1.9p+6")		; defaults.parking.pullout_rate @ 2288
	.float  	$strtod("0x1.4p+2")		; defaults.parking.pullout_increment @ 2320
	.bits		0,8
			; defaults.safety_door.flags.value @ 2352
	.bits		0,8

	.float  	$strtod("0x1p+2")		; defaults.safety_door.spindle_on_delay @ 2368
	.float  	$strtod("0x1p+0")		; defaults.safety_door.coolant_on_delay @ 2400
	.space	36

$C$DW$8	.dwtag  DW_TAG_variable
	.dwattr $C$DW$8, DW_AT_name("defaults")
	.dwattr $C$DW$8, DW_AT_TI_symbol_name("defaults")
	.dwattr $C$DW$8, DW_AT_location[DW_OP_addr defaults]
	.dwattr $C$DW$8, DW_AT_type(*$C$DW$T$810)
	.dwattr $C$DW$8, DW_AT_external
	.dwattr $C$DW$8, DW_AT_decl_file("../grbl/settings.c")
	.dwattr $C$DW$8, DW_AT_decl_line(0x45)
	.dwattr $C$DW$8, DW_AT_decl_column(0x1a)

	.sect	".const:setting_group_detail"
	.align	2
	.elfsym	setting_group_detail,SYM_SIZE(152)
setting_group_detail:
	.bits		0,16
			; setting_group_detail[0].parent @ 0
	.bits		0,16
			; setting_group_detail[0].id @ 16
	.bits	$C$FSL1,32		; setting_group_detail[0].name @ 32
	.bits		0,16
			; setting_group_detail[1].parent @ 64
	.bits		0x1,16
			; setting_group_detail[1].id @ 80
	.bits	$C$FSL2,32		; setting_group_detail[1].name @ 96
	.bits		0,16
			; setting_group_detail[2].parent @ 128
	.bits		0x2,16
			; setting_group_detail[2].id @ 144
	.bits	$C$FSL3,32		; setting_group_detail[2].name @ 160
	.bits		0,16
			; setting_group_detail[3].parent @ 192
	.bits		0x3,16
			; setting_group_detail[3].id @ 208
	.bits	$C$FSL4,32		; setting_group_detail[3].name @ 224
	.bits		0x3,16
			; setting_group_detail[4].parent @ 256
	.bits		0x4,16
			; setting_group_detail[4].id @ 272
	.bits	$C$FSL5,32		; setting_group_detail[4].name @ 288
	.bits		0,16
			; setting_group_detail[5].parent @ 320
	.bits		0x5,16
			; setting_group_detail[5].id @ 336
	.bits	$C$FSL6,32		; setting_group_detail[5].name @ 352
	.bits		0,16
			; setting_group_detail[6].parent @ 384
	.bits		0x6,16
			; setting_group_detail[6].id @ 400
	.bits	$C$FSL7,32		; setting_group_detail[6].name @ 416
	.bits		0x6,16
			; setting_group_detail[7].parent @ 448
	.bits		0x7,16
			; setting_group_detail[7].id @ 464
	.bits	$C$FSL8,32		; setting_group_detail[7].name @ 480
	.bits		0,16
			; setting_group_detail[8].parent @ 512
	.bits		0x9,16
			; setting_group_detail[8].id @ 528
	.bits	$C$FSL9,32		; setting_group_detail[8].name @ 544
	.bits		0,16
			; setting_group_detail[9].parent @ 576
	.bits		0xb,16
			; setting_group_detail[9].id @ 592
	.bits	$C$FSL10,32		; setting_group_detail[9].name @ 608
	.bits		0,16
			; setting_group_detail[10].parent @ 640
	.bits		0xc,16
			; setting_group_detail[10].id @ 656
	.bits	$C$FSL11,32		; setting_group_detail[10].name @ 672
	.bits		0,16
			; setting_group_detail[11].parent @ 704
	.bits		0xd,16
			; setting_group_detail[11].id @ 720
	.bits	$C$FSL12,32		; setting_group_detail[11].name @ 736
	.bits		0,16
			; setting_group_detail[12].parent @ 768
	.bits		0xe,16
			; setting_group_detail[12].id @ 784
	.bits	$C$FSL13,32		; setting_group_detail[12].name @ 800
	.bits		0,16
			; setting_group_detail[13].parent @ 832
	.bits		0x1b,16
			; setting_group_detail[13].id @ 848
	.bits	$C$FSL14,32		; setting_group_detail[13].name @ 864
	.bits		0,16
			; setting_group_detail[14].parent @ 896
	.bits		0x1c,16
			; setting_group_detail[14].id @ 912
	.bits	$C$FSL15,32		; setting_group_detail[14].name @ 928
	.bits		0,16
			; setting_group_detail[15].parent @ 960
	.bits		0x1d,16
			; setting_group_detail[15].id @ 976
	.bits	$C$FSL16,32		; setting_group_detail[15].name @ 992
	.bits		0x1d,16
			; setting_group_detail[16].parent @ 1024
	.bits		0x1e,16
			; setting_group_detail[16].id @ 1040
	.bits	$C$FSL17,32		; setting_group_detail[16].name @ 1056
	.bits		0x1d,16
			; setting_group_detail[17].parent @ 1088
	.bits		0x1f,16
			; setting_group_detail[17].id @ 1104
	.bits	$C$FSL18,32		; setting_group_detail[17].name @ 1120
	.bits		0x1d,16
			; setting_group_detail[18].parent @ 1152
	.bits		0x20,16
			; setting_group_detail[18].id @ 1168
	.bits	$C$FSL19,32		; setting_group_detail[18].name @ 1184

$C$DW$9	.dwtag  DW_TAG_variable
	.dwattr $C$DW$9, DW_AT_name("setting_group_detail")
	.dwattr $C$DW$9, DW_AT_TI_symbol_name("setting_group_detail")
	.dwattr $C$DW$9, DW_AT_type(*$C$DW$T$805)
	.dwattr $C$DW$9, DW_AT_location[DW_OP_addr setting_group_detail]
	.dwattr $C$DW$9, DW_AT_decl_file("../grbl/settings.c")
	.dwattr $C$DW$9, DW_AT_decl_line(0x126)
	.dwattr $C$DW$9, DW_AT_decl_column(0x2d)

	.sect	".data:control_signals", RW
	.align	2
	.elfsym	control_signals,SYM_SIZE(102)
control_signals:
	.bits		0x52,8
			; control_signals[0] @ 0
	.bits		0x65,8
			; control_signals[1] @ 8
	.bits		0x73,8
			; control_signals[2] @ 16
	.bits		0x65,8
			; control_signals[3] @ 24
	.bits		0x74,8
			; control_signals[4] @ 32
	.bits		0x2c,8
			; control_signals[5] @ 40
	.bits		0x46,8
			; control_signals[6] @ 48
	.bits		0x65,8
			; control_signals[7] @ 56
	.bits		0x65,8
			; control_signals[8] @ 64
	.bits		0x64,8
			; control_signals[9] @ 72
	.bits		0x20,8
			; control_signals[10] @ 80
	.bits		0x68,8
			; control_signals[11] @ 88
	.bits		0x6f,8
			; control_signals[12] @ 96
	.bits		0x6c,8
			; control_signals[13] @ 104
	.bits		0x64,8
			; control_signals[14] @ 112
	.bits		0x2c,8
			; control_signals[15] @ 120
	.bits		0x43,8
			; control_signals[16] @ 128
	.bits		0x79,8
			; control_signals[17] @ 136
	.bits		0x63,8
			; control_signals[18] @ 144
	.bits		0x6c,8
			; control_signals[19] @ 152
	.bits		0x65,8
			; control_signals[20] @ 160
	.bits		0x20,8
			; control_signals[21] @ 168
	.bits		0x73,8
			; control_signals[22] @ 176
	.bits		0x74,8
			; control_signals[23] @ 184
	.bits		0x61,8
			; control_signals[24] @ 192
	.bits		0x72,8
			; control_signals[25] @ 200
	.bits		0x74,8
			; control_signals[26] @ 208
	.bits		0x2c,8
			; control_signals[27] @ 216
	.bits		0x53,8
			; control_signals[28] @ 224
	.bits		0x61,8
			; control_signals[29] @ 232
	.bits		0x66,8
			; control_signals[30] @ 240
	.bits		0x65,8
			; control_signals[31] @ 248
	.bits		0x74,8
			; control_signals[32] @ 256
	.bits		0x79,8
			; control_signals[33] @ 264
	.bits		0x20,8
			; control_signals[34] @ 272
	.bits		0x64,8
			; control_signals[35] @ 280
	.bits		0x6f,8
			; control_signals[36] @ 288
	.bits		0x6f,8
			; control_signals[37] @ 296
	.bits		0x72,8
			; control_signals[38] @ 304
	.bits		0x2c,8
			; control_signals[39] @ 312
	.bits		0x42,8
			; control_signals[40] @ 320
	.bits		0x6c,8
			; control_signals[41] @ 328
	.bits		0x6f,8
			; control_signals[42] @ 336
	.bits		0x63,8
			; control_signals[43] @ 344
	.bits		0x6b,8
			; control_signals[44] @ 352
	.bits		0x20,8
			; control_signals[45] @ 360
	.bits		0x64,8
			; control_signals[46] @ 368
	.bits		0x65,8
			; control_signals[47] @ 376
	.bits		0x6c,8
			; control_signals[48] @ 384
	.bits		0x65,8
			; control_signals[49] @ 392
	.bits		0x74,8
			; control_signals[50] @ 400
	.bits		0x65,8
			; control_signals[51] @ 408
	.bits		0x2c,8
			; control_signals[52] @ 416
	.bits		0x4f,8
			; control_signals[53] @ 424
	.bits		0x70,8
			; control_signals[54] @ 432
	.bits		0x74,8
			; control_signals[55] @ 440
	.bits		0x69,8
			; control_signals[56] @ 448
	.bits		0x6f,8
			; control_signals[57] @ 456
	.bits		0x6e,8
			; control_signals[58] @ 464
	.bits		0x61,8
			; control_signals[59] @ 472
	.bits		0x6c,8
			; control_signals[60] @ 480
	.bits		0x20,8
			; control_signals[61] @ 488
	.bits		0x73,8
			; control_signals[62] @ 496
	.bits		0x74,8
			; control_signals[63] @ 504
	.bits		0x6f,8
			; control_signals[64] @ 512
	.bits		0x70,8
			; control_signals[65] @ 520
	.bits		0x2c,8
			; control_signals[66] @ 528
	.bits		0x45,8
			; control_signals[67] @ 536
	.bits		0x53,8
			; control_signals[68] @ 544
	.bits		0x74,8
			; control_signals[69] @ 552
	.bits		0x6f,8
			; control_signals[70] @ 560
	.bits		0x70,8
			; control_signals[71] @ 568
	.bits		0x2c,8
			; control_signals[72] @ 576
	.bits		0x50,8
			; control_signals[73] @ 584
	.bits		0x72,8
			; control_signals[74] @ 592
	.bits		0x6f,8
			; control_signals[75] @ 600
	.bits		0x62,8
			; control_signals[76] @ 608
	.bits		0x65,8
			; control_signals[77] @ 616
	.bits		0x20,8
			; control_signals[78] @ 624
	.bits		0x63,8
			; control_signals[79] @ 632
	.bits		0x6f,8
			; control_signals[80] @ 640
	.bits		0x6e,8
			; control_signals[81] @ 648
	.bits		0x6e,8
			; control_signals[82] @ 656
	.bits		0x65,8
			; control_signals[83] @ 664
	.bits		0x63,8
			; control_signals[84] @ 672
	.bits		0x74,8
			; control_signals[85] @ 680
	.bits		0x65,8
			; control_signals[86] @ 688
	.bits		0x64,8
			; control_signals[87] @ 696
	.bits		0x2c,8
			; control_signals[88] @ 704
	.bits		0x4d,8
			; control_signals[89] @ 712
	.bits		0x6f,8
			; control_signals[90] @ 720
	.bits		0x74,8
			; control_signals[91] @ 728
	.bits		0x6f,8
			; control_signals[92] @ 736
	.bits		0x72,8
			; control_signals[93] @ 744
	.bits		0x20,8
			; control_signals[94] @ 752
	.bits		0x66,8
			; control_signals[95] @ 760
	.bits		0x61,8
			; control_signals[96] @ 768
	.bits		0x75,8
			; control_signals[97] @ 776
	.bits		0x6c,8
			; control_signals[98] @ 784
	.bits		0x74,8
			; control_signals[99] @ 792
	.bits		0,8
			; control_signals[100] @ 800

$C$DW$10	.dwtag  DW_TAG_variable
	.dwattr $C$DW$10, DW_AT_name("control_signals")
	.dwattr $C$DW$10, DW_AT_TI_symbol_name("control_signals")
	.dwattr $C$DW$10, DW_AT_type(*$C$DW$T$1076)
	.dwattr $C$DW$10, DW_AT_location[DW_OP_addr control_signals]
	.dwattr $C$DW$10, DW_AT_decl_file("../grbl/settings.c")
	.dwattr $C$DW$10, DW_AT_decl_line(0x177)
	.dwattr $C$DW$10, DW_AT_decl_column(0x0d)

	.sect	".data:spindle_signals", RW
	.align	2
	.elfsym	spindle_signals,SYM_SIZE(38)
spindle_signals:
	.bits		0x53,8
			; spindle_signals[0] @ 0
	.bits		0x70,8
			; spindle_signals[1] @ 8
	.bits		0x69,8
			; spindle_signals[2] @ 16
	.bits		0x6e,8
			; spindle_signals[3] @ 24
	.bits		0x64,8
			; spindle_signals[4] @ 32
	.bits		0x6c,8
			; spindle_signals[5] @ 40
	.bits		0x65,8
			; spindle_signals[6] @ 48
	.bits		0x20,8
			; spindle_signals[7] @ 56
	.bits		0x65,8
			; spindle_signals[8] @ 64
	.bits		0x6e,8
			; spindle_signals[9] @ 72
	.bits		0x61,8
			; spindle_signals[10] @ 80
	.bits		0x62,8
			; spindle_signals[11] @ 88
	.bits		0x6c,8
			; spindle_signals[12] @ 96
	.bits		0x65,8
			; spindle_signals[13] @ 104
	.bits		0x2c,8
			; spindle_signals[14] @ 112
	.bits		0x53,8
			; spindle_signals[15] @ 120
	.bits		0x70,8
			; spindle_signals[16] @ 128
	.bits		0x69,8
			; spindle_signals[17] @ 136
	.bits		0x6e,8
			; spindle_signals[18] @ 144
	.bits		0x64,8
			; spindle_signals[19] @ 152
	.bits		0x6c,8
			; spindle_signals[20] @ 160
	.bits		0x65,8
			; spindle_signals[21] @ 168
	.bits		0x20,8
			; spindle_signals[22] @ 176
	.bits		0x64,8
			; spindle_signals[23] @ 184
	.bits		0x69,8
			; spindle_signals[24] @ 192
	.bits		0x72,8
			; spindle_signals[25] @ 200
	.bits		0x65,8
			; spindle_signals[26] @ 208
	.bits		0x63,8
			; spindle_signals[27] @ 216
	.bits		0x74,8
			; spindle_signals[28] @ 224
	.bits		0x69,8
			; spindle_signals[29] @ 232
	.bits		0x6f,8
			; spindle_signals[30] @ 240
	.bits		0x6e,8
			; spindle_signals[31] @ 248
	.bits		0x2c,8
			; spindle_signals[32] @ 256
	.bits		0x50,8
			; spindle_signals[33] @ 264
	.bits		0x57,8
			; spindle_signals[34] @ 272
	.bits		0x4d,8
			; spindle_signals[35] @ 280
	.bits		0,8
			; spindle_signals[36] @ 288

$C$DW$11	.dwtag  DW_TAG_variable
	.dwattr $C$DW$11, DW_AT_name("spindle_signals")
	.dwattr $C$DW$11, DW_AT_TI_symbol_name("spindle_signals")
	.dwattr $C$DW$11, DW_AT_type(*$C$DW$T$1078)
	.dwattr $C$DW$11, DW_AT_location[DW_OP_addr spindle_signals]
	.dwattr $C$DW$11, DW_AT_decl_file("../grbl/settings.c")
	.dwattr $C$DW$11, DW_AT_decl_line(0x178)
	.dwattr $C$DW$11, DW_AT_decl_column(0x0d)

	.sect	".data:coolant_signals", RW
	.align	2
	.elfsym	coolant_signals,SYM_SIZE(12)
coolant_signals:
	.bits		0x46,8
			; coolant_signals[0] @ 0
	.bits		0x6c,8
			; coolant_signals[1] @ 8
	.bits		0x6f,8
			; coolant_signals[2] @ 16
	.bits		0x6f,8
			; coolant_signals[3] @ 24
	.bits		0x64,8
			; coolant_signals[4] @ 32
	.bits		0x2c,8
			; coolant_signals[5] @ 40
	.bits		0x4d,8
			; coolant_signals[6] @ 48
	.bits		0x69,8
			; coolant_signals[7] @ 56
	.bits		0x73,8
			; coolant_signals[8] @ 64
	.bits		0x74,8
			; coolant_signals[9] @ 72
	.bits		0,8
			; coolant_signals[10] @ 80

$C$DW$12	.dwtag  DW_TAG_variable
	.dwattr $C$DW$12, DW_AT_name("coolant_signals")
	.dwattr $C$DW$12, DW_AT_TI_symbol_name("coolant_signals")
	.dwattr $C$DW$12, DW_AT_type(*$C$DW$T$1080)
	.dwattr $C$DW$12, DW_AT_location[DW_OP_addr coolant_signals]
	.dwattr $C$DW$12, DW_AT_decl_file("../grbl/settings.c")
	.dwattr $C$DW$12, DW_AT_decl_line(0x179)
	.dwattr $C$DW$12, DW_AT_decl_column(0x0d)

	.sect	".data:ganged_axes", RW
	.align	2
	.elfsym	ganged_axes,SYM_SIZE(22)
ganged_axes:
	.bits		0x58,8
			; ganged_axes[0] @ 0
	.bits		0x2d,8
			; ganged_axes[1] @ 8
	.bits		0x41,8
			; ganged_axes[2] @ 16
	.bits		0x78,8
			; ganged_axes[3] @ 24
	.bits		0x69,8
			; ganged_axes[4] @ 32
	.bits		0x73,8
			; ganged_axes[5] @ 40
	.bits		0x2c,8
			; ganged_axes[6] @ 48
	.bits		0x59,8
			; ganged_axes[7] @ 56
	.bits		0x2d,8
			; ganged_axes[8] @ 64
	.bits		0x41,8
			; ganged_axes[9] @ 72
	.bits		0x78,8
			; ganged_axes[10] @ 80
	.bits		0x69,8
			; ganged_axes[11] @ 88
	.bits		0x73,8
			; ganged_axes[12] @ 96
	.bits		0x2c,8
			; ganged_axes[13] @ 104
	.bits		0x5a,8
			; ganged_axes[14] @ 112
	.bits		0x2d,8
			; ganged_axes[15] @ 120
	.bits		0x41,8
			; ganged_axes[16] @ 128
	.bits		0x78,8
			; ganged_axes[17] @ 136
	.bits		0x69,8
			; ganged_axes[18] @ 144
	.bits		0x73,8
			; ganged_axes[19] @ 152
	.bits		0,8
			; ganged_axes[20] @ 160

$C$DW$13	.dwtag  DW_TAG_variable
	.dwattr $C$DW$13, DW_AT_name("ganged_axes")
	.dwattr $C$DW$13, DW_AT_TI_symbol_name("ganged_axes")
	.dwattr $C$DW$13, DW_AT_type(*$C$DW$T$1082)
	.dwattr $C$DW$13, DW_AT_location[DW_OP_addr ganged_axes]
	.dwattr $C$DW$13, DW_AT_decl_file("../grbl/settings.c")
	.dwattr $C$DW$13, DW_AT_decl_line(0x17a)
	.dwattr $C$DW$13, DW_AT_decl_column(0x0d)

	.sect	".const:setting_detail"
	.align	2
	.elfsym	setting_detail,SYM_SIZE(2920)
setting_detail:
	.bits		0,16
			; setting_detail[0].id @ 0
	.bits		0x1b,16
			; setting_detail[0].group @ 16
	.bits	$C$FSL20,32		; setting_detail[0].name @ 32
	.bits	$C$FSL21,32		; setting_detail[0].unit @ 64
	.bits		0x6,16
			; setting_detail[0].datatype @ 96
	.bits	$C$FSL22,32		; setting_detail[0].format @ 112
	.bits	$C$FSL23,32		; setting_detail[0].min_value @ 144
	.bits		0,32
			; setting_detail[0].max_value @ 176
	.bits		0x4,16
			; setting_detail[0].type @ 208
	.bits	settings + 224,32		; setting_detail[0].value @ 224
	.bits		0,32
			; setting_detail[0].get_value @ 256
	.bits		0,32
			; setting_detail[0].is_available @ 288
	.bits		0x1,16
			; setting_detail[1].id @ 320
	.bits		0x1b,16
			; setting_detail[1].group @ 336
	.bits	$C$FSL24,32		; setting_detail[1].name @ 352
	.bits	$C$FSL25,32		; setting_detail[1].unit @ 384
	.bits		0xb,16
			; setting_detail[1].datatype @ 416
	.bits	$C$FSL26,32		; setting_detail[1].format @ 432
	.bits		0,32
			; setting_detail[1].min_value @ 464
	.bits	$C$FSL27,32		; setting_detail[1].max_value @ 496
	.bits		0x4,16
			; setting_detail[1].type @ 528
	.bits	settings + 232,32		; setting_detail[1].value @ 544
	.bits		0,32
			; setting_detail[1].get_value @ 576
	.bits		0,32
			; setting_detail[1].is_available @ 608
	.bits		0x2,16
			; setting_detail[2].id @ 640
	.bits		0x1b,16
			; setting_detail[2].group @ 656
	.bits	$C$FSL28,32		; setting_detail[2].name @ 672
	.bits		0,32
			; setting_detail[2].unit @ 704
	.bits		0x4,16
			; setting_detail[2].datatype @ 736
	.bits		0,32
			; setting_detail[2].format @ 752
	.bits		0,32
			; setting_detail[2].min_value @ 784
	.bits		0,32
			; setting_detail[2].max_value @ 816
	.bits		0x4,16
			; setting_detail[2].type @ 848
	.bits	settings + 218,32		; setting_detail[2].value @ 864
	.bits		0,32
			; setting_detail[2].get_value @ 896
	.bits		0,32
			; setting_detail[2].is_available @ 928
	.bits		0x3,16
			; setting_detail[3].id @ 960
	.bits		0x1b,16
			; setting_detail[3].group @ 976
	.bits	$C$FSL29,32		; setting_detail[3].name @ 992
	.bits		0,32
			; setting_detail[3].unit @ 1024
	.bits		0x4,16
			; setting_detail[3].datatype @ 1056
	.bits		0,32
			; setting_detail[3].format @ 1072
	.bits		0,32
			; setting_detail[3].min_value @ 1104
	.bits		0,32
			; setting_detail[3].max_value @ 1136
	.bits		0x4,16
			; setting_detail[3].type @ 1168
	.bits	settings + 219,32		; setting_detail[3].value @ 1184
	.bits		0,32
			; setting_detail[3].get_value @ 1216
	.bits		0,32
			; setting_detail[3].is_available @ 1248
	.bits		0x4,16
			; setting_detail[4].id @ 1280
	.bits		0x1b,16
			; setting_detail[4].group @ 1296
	.bits	$C$FSL30,32		; setting_detail[4].name @ 1312
	.bits		0,32
			; setting_detail[4].unit @ 1344
	.bits		0x4,16
			; setting_detail[4].datatype @ 1376
	.bits		0,32
			; setting_detail[4].format @ 1392
	.bits		0,32
			; setting_detail[4].min_value @ 1424
	.bits		0,32
			; setting_detail[4].max_value @ 1456
	.bits		0x4,16
			; setting_detail[4].type @ 1488
	.bits	settings + 221,32		; setting_detail[4].value @ 1504
	.bits		0,32
			; setting_detail[4].get_value @ 1536
	.bits		0,32
			; setting_detail[4].is_available @ 1568
	.bits		0x5,16
			; setting_detail[5].id @ 1600
	.bits		0x3,16
			; setting_detail[5].group @ 1616
	.bits	$C$FSL31,32		; setting_detail[5].name @ 1632
	.bits		0,32
			; setting_detail[5].unit @ 1664
	.bits		0x4,16
			; setting_detail[5].datatype @ 1696
	.bits		0,32
			; setting_detail[5].format @ 1712
	.bits		0,32
			; setting_detail[5].min_value @ 1744
	.bits		0,32
			; setting_detail[5].max_value @ 1776
	.bits		0x4,16
			; setting_detail[5].type @ 1808
	.bits	settings + 273,32		; setting_detail[5].value @ 1824
	.bits		0,32
			; setting_detail[5].get_value @ 1856
	.bits		0,32
			; setting_detail[5].is_available @ 1888
	.bits		0x6,16
			; setting_detail[6].id @ 1920
	.bits		0xc,16
			; setting_detail[6].group @ 1936
	.bits	$C$FSL32,32		; setting_detail[6].name @ 1952
	.bits		0,32
			; setting_detail[6].unit @ 1984
	.bits		0,16
			; setting_detail[6].datatype @ 2016
	.bits		0,32
			; setting_detail[6].format @ 2032
	.bits		0,32
			; setting_detail[6].min_value @ 2064
	.bits		0,32
			; setting_detail[6].max_value @ 2096
	.bits		0x5,16
			; setting_detail[6].type @ 2128
	.bits	set_probe_invert,32		; setting_detail[6].value @ 2144
	.bits	get_int,32		; setting_detail[6].get_value @ 2176
	.bits	is_setting_available,32		; setting_detail[6].is_available @ 2208
	.bits		0x7,16
			; setting_detail[7].id @ 2240
	.bits		0x6,16
			; setting_detail[7].group @ 2256
	.bits	$C$FSL33,32		; setting_detail[7].name @ 2272
	.bits		0,32
			; setting_detail[7].unit @ 2304
	.bits		0,16
			; setting_detail[7].datatype @ 2336
	.bits		0,32
			; setting_detail[7].format @ 2352
	.bits		0,32
			; setting_detail[7].min_value @ 2384
	.bits		0,32
			; setting_detail[7].max_value @ 2416
	.bits		0x2,16
			; setting_detail[7].type @ 2448
	.bits	settings + 217,32		; setting_detail[7].value @ 2464
	.bits		0,32
			; setting_detail[7].get_value @ 2496
	.bits	is_setting_available,32		; setting_detail[7].is_available @ 2528
	.bits		0x8,16
			; setting_detail[8].id @ 2560
	.bits		0x1b,16
			; setting_detail[8].group @ 2576
	.bits	$C$FSL34,32		; setting_detail[8].name @ 2592
	.bits		0,32
			; setting_detail[8].unit @ 2624
	.bits		0x1,16
			; setting_detail[8].datatype @ 2656
	.bits	ganged_axes,32		; setting_detail[8].format @ 2672
	.bits		0,32
			; setting_detail[8].min_value @ 2704
	.bits		0,32
			; setting_detail[8].max_value @ 2736
	.bits		0x3,16
			; setting_detail[8].type @ 2768
	.bits	set_ganged_dir_invert,32		; setting_detail[8].value @ 2784
	.bits	get_int,32		; setting_detail[8].get_value @ 2816
	.bits	is_setting_available,32		; setting_detail[8].is_available @ 2848
	.bits		0xa,16
			; setting_detail[9].id @ 2880
	.bits		0x1,16
			; setting_detail[9].group @ 2896
	.bits	$C$FSL35,32		; setting_detail[9].name @ 2912
	.bits		0,32
			; setting_detail[9].unit @ 2944
	.bits		0x1,16
			; setting_detail[9].datatype @ 2976
	.bits	$C$FSL36,32		; setting_detail[9].format @ 2992
	.bits		0,32
			; setting_detail[9].min_value @ 3024
	.bits		0,32
			; setting_detail[9].max_value @ 3056
	.bits		0x3,16
			; setting_detail[9].type @ 3088
	.bits	set_report_mask,32		; setting_detail[9].value @ 3104
	.bits	get_int,32		; setting_detail[9].get_value @ 3136
	.bits		0,32
			; setting_detail[9].is_available @ 3168
	.bits		0xb,16
			; setting_detail[10].id @ 3200
	.bits		0x1,16
			; setting_detail[10].group @ 3216
	.bits	$C$FSL37,32		; setting_detail[10].name @ 3232
	.bits	$C$FSL38,32		; setting_detail[10].unit @ 3264
	.bits		0x6,16
			; setting_detail[10].datatype @ 3296
	.bits	$C$FSL39,32		; setting_detail[10].format @ 3312
	.bits		0,32
			; setting_detail[10].min_value @ 3344
	.bits		0,32
			; setting_detail[10].max_value @ 3376
	.bits		0x4,16
			; setting_detail[10].type @ 3408
	.bits	settings + 4,32		; setting_detail[10].value @ 3424
	.bits		0,32
			; setting_detail[10].get_value @ 3456
	.bits		0,32
			; setting_detail[10].is_available @ 3488
	.bits		0xc,16
			; setting_detail[11].id @ 3520
	.bits		0x1,16
			; setting_detail[11].group @ 3536
	.bits	$C$FSL40,32		; setting_detail[11].name @ 3552
	.bits	$C$FSL38,32		; setting_detail[11].unit @ 3584
	.bits		0x6,16
			; setting_detail[11].datatype @ 3616
	.bits	$C$FSL39,32		; setting_detail[11].format @ 3632
	.bits		0,32
			; setting_detail[11].min_value @ 3664
	.bits		0,32
			; setting_detail[11].max_value @ 3696
	.bits		0x4,16
			; setting_detail[11].type @ 3728
	.bits	settings + 8,32		; setting_detail[11].value @ 3744
	.bits		0,32
			; setting_detail[11].get_value @ 3776
	.bits		0,32
			; setting_detail[11].is_available @ 3808
	.bits		0xd,16
			; setting_detail[12].id @ 3840
	.bits		0x1,16
			; setting_detail[12].group @ 3856
	.bits	$C$FSL41,32		; setting_detail[12].name @ 3872
	.bits		0,32
			; setting_detail[12].unit @ 3904
	.bits		0,16
			; setting_detail[12].datatype @ 3936
	.bits		0,32
			; setting_detail[12].format @ 3952
	.bits		0,32
			; setting_detail[12].min_value @ 3984
	.bits		0,32
			; setting_detail[12].max_value @ 4016
	.bits		0x5,16
			; setting_detail[12].type @ 4048
	.bits	set_report_inches,32		; setting_detail[12].value @ 4064
	.bits	get_int,32		; setting_detail[12].get_value @ 4096
	.bits		0,32
			; setting_detail[12].is_available @ 4128
	.bits		0xe,16
			; setting_detail[13].id @ 4160
	.bits		0x2,16
			; setting_detail[13].group @ 4176
	.bits	$C$FSL42,32		; setting_detail[13].name @ 4192
	.bits		0,32
			; setting_detail[13].unit @ 4224
	.bits		0x1,16
			; setting_detail[13].datatype @ 4256
	.bits	control_signals,32		; setting_detail[13].format @ 4272
	.bits		0,32
			; setting_detail[13].min_value @ 4304
	.bits		0,32
			; setting_detail[13].max_value @ 4336
	.bits		0x7,16
			; setting_detail[13].type @ 4368
	.bits	set_control_invert,32		; setting_detail[13].value @ 4384
	.bits	get_int,32		; setting_detail[13].get_value @ 4416
	.bits		0,32
			; setting_detail[13].is_available @ 4448
	.bits		0xf,16
			; setting_detail[14].id @ 4480
	.bits		0x5,16
			; setting_detail[14].group @ 4496
	.bits	$C$FSL43,32		; setting_detail[14].name @ 4512
	.bits		0,32
			; setting_detail[14].unit @ 4544
	.bits		0x1,16
			; setting_detail[14].datatype @ 4576
	.bits	coolant_signals,32		; setting_detail[14].format @ 4592
	.bits		0,32
			; setting_detail[14].min_value @ 4624
	.bits		0,32
			; setting_detail[14].max_value @ 4656
	.bits		0x2,16
			; setting_detail[14].type @ 4688
	.bits	settings + 100,32		; setting_detail[14].value @ 4704
	.bits		0,32
			; setting_detail[14].get_value @ 4736
	.bits		0,32
			; setting_detail[14].is_available @ 4768
	.bits		0x10,16
			; setting_detail[15].id @ 4800
	.bits		0x6,16
			; setting_detail[15].group @ 4816
	.bits	$C$FSL44,32		; setting_detail[15].name @ 4832
	.bits		0,32
			; setting_detail[15].unit @ 4864
	.bits		0x1,16
			; setting_detail[15].datatype @ 4896
	.bits	spindle_signals,32		; setting_detail[15].format @ 4912
	.bits		0,32
			; setting_detail[15].min_value @ 4944
	.bits		0,32
			; setting_detail[15].max_value @ 4976
	.bits		0x3,16
			; setting_detail[15].type @ 5008
	.bits	set_spindle_invert,32		; setting_detail[15].value @ 5024
	.bits	get_int,32		; setting_detail[15].get_value @ 5056
	.bits		0,32
			; setting_detail[15].is_available @ 5088
	.bits		0x11,16
			; setting_detail[16].id @ 5120
	.bits		0x2,16
			; setting_detail[16].group @ 5136
	.bits	$C$FSL45,32		; setting_detail[16].name @ 5152
	.bits		0,32
			; setting_detail[16].unit @ 5184
	.bits		0x1,16
			; setting_detail[16].datatype @ 5216
	.bits	control_signals,32		; setting_detail[16].format @ 5232
	.bits		0,32
			; setting_detail[16].min_value @ 5264
	.bits		0,32
			; setting_detail[16].max_value @ 5296
	.bits		0x3,16
			; setting_detail[16].type @ 5328
	.bits	set_control_disable_pullup,32		; setting_detail[16].value @ 5344
	.bits	get_int,32		; setting_detail[16].get_value @ 5376
	.bits		0,32
			; setting_detail[16].is_available @ 5408
	.bits		0x12,16
			; setting_detail[17].id @ 5440
	.bits		0x3,16
			; setting_detail[17].group @ 5456
	.bits	$C$FSL46,32		; setting_detail[17].name @ 5472
	.bits		0,32
			; setting_detail[17].unit @ 5504
	.bits		0x4,16
			; setting_detail[17].datatype @ 5536
	.bits		0,32
			; setting_detail[17].format @ 5552
	.bits		0,32
			; setting_detail[17].min_value @ 5584
	.bits		0,32
			; setting_detail[17].max_value @ 5616
	.bits		0x2,16
			; setting_detail[17].type @ 5648
	.bits	settings + 274,32		; setting_detail[17].value @ 5664
	.bits		0,32
			; setting_detail[17].get_value @ 5696
	.bits		0,32
			; setting_detail[17].is_available @ 5728
	.bits		0x13,16
			; setting_detail[18].id @ 5760
	.bits		0xc,16
			; setting_detail[18].group @ 5776
	.bits	$C$FSL47,32		; setting_detail[18].name @ 5792
	.bits		0,32
			; setting_detail[18].unit @ 5824
	.bits		0,16
			; setting_detail[18].datatype @ 5856
	.bits		0,32
			; setting_detail[18].format @ 5872
	.bits		0,32
			; setting_detail[18].min_value @ 5904
	.bits		0,32
			; setting_detail[18].max_value @ 5936
	.bits		0x3,16
			; setting_detail[18].type @ 5968
	.bits	set_probe_disable_pullup,32		; setting_detail[18].value @ 5984
	.bits	get_int,32		; setting_detail[18].get_value @ 6016
	.bits	is_setting_available,32		; setting_detail[18].is_available @ 6048
	.bits		0x14,16
			; setting_detail[19].id @ 6080
	.bits		0x3,16
			; setting_detail[19].group @ 6096
	.bits	$C$FSL48,32		; setting_detail[19].name @ 6112
	.bits		0,32
			; setting_detail[19].unit @ 6144
	.bits		0,16
			; setting_detail[19].datatype @ 6176
	.bits		0,32
			; setting_detail[19].format @ 6192
	.bits		0,32
			; setting_detail[19].min_value @ 6224
	.bits		0,32
			; setting_detail[19].max_value @ 6256
	.bits		0x5,16
			; setting_detail[19].type @ 6288
	.bits	set_soft_limits_enable,32		; setting_detail[19].value @ 6304
	.bits	get_int,32		; setting_detail[19].get_value @ 6336
	.bits		0,32
			; setting_detail[19].is_available @ 6368
	.bits		0x15,16
			; setting_detail[20].id @ 6400
	.bits		0x3,16
			; setting_detail[20].group @ 6416
	.bits	$C$FSL49,32		; setting_detail[20].name @ 6432
	.bits		0,32
			; setting_detail[20].unit @ 6464
	.bits		0x2,16
			; setting_detail[20].datatype @ 6496
	.bits	$C$FSL50,32		; setting_detail[20].format @ 6512
	.bits		0,32
			; setting_detail[20].min_value @ 6544
	.bits		0,32
			; setting_detail[20].max_value @ 6576
	.bits		0x7,16
			; setting_detail[20].type @ 6608
	.bits	set_hard_limits_enable,32		; setting_detail[20].value @ 6624
	.bits	get_int,32		; setting_detail[20].get_value @ 6656
	.bits		0,32
			; setting_detail[20].is_available @ 6688
	.bits		0x16,16
			; setting_detail[21].id @ 6720
	.bits		0xb,16
			; setting_detail[21].group @ 6736
	.bits	$C$FSL51,32		; setting_detail[21].name @ 6752
	.bits		0,32
			; setting_detail[21].unit @ 6784
	.bits		0x2,16
			; setting_detail[21].datatype @ 6816
	.bits	$C$FSL52,32		; setting_detail[21].format @ 6832
	.bits		0,32
			; setting_detail[21].min_value @ 6864
	.bits		0,32
			; setting_detail[21].max_value @ 6896
	.bits		0x7,16
			; setting_detail[21].type @ 6928
	.bits	set_homing_enable,32		; setting_detail[21].value @ 6944
	.bits	get_int,32		; setting_detail[21].get_value @ 6976
	.bits		0,32
			; setting_detail[21].is_available @ 7008
	.bits		0x17,16
			; setting_detail[22].id @ 7040
	.bits		0xb,16
			; setting_detail[22].group @ 7056
	.bits	$C$FSL53,32		; setting_detail[22].name @ 7072
	.bits		0,32
			; setting_detail[22].unit @ 7104
	.bits		0x4,16
			; setting_detail[22].datatype @ 7136
	.bits		0,32
			; setting_detail[22].format @ 7152
	.bits		0,32
			; setting_detail[22].min_value @ 7184
	.bits		0,32
			; setting_detail[22].max_value @ 7216
	.bits		0x4,16
			; setting_detail[22].type @ 7248
	.bits	settings + 252,32		; setting_detail[22].value @ 7264
	.bits		0,32
			; setting_detail[22].get_value @ 7296
	.bits		0,32
			; setting_detail[22].is_available @ 7328
	.bits		0x18,16
			; setting_detail[23].id @ 7360
	.bits		0xb,16
			; setting_detail[23].group @ 7376
	.bits	$C$FSL54,32		; setting_detail[23].name @ 7392
	.bits	$C$FSL55,32		; setting_detail[23].unit @ 7424
	.bits		0x6,16
			; setting_detail[23].datatype @ 7456
	.bits	$C$FSL56,32		; setting_detail[23].format @ 7472
	.bits		0,32
			; setting_detail[23].min_value @ 7504
	.bits		0,32
			; setting_detail[23].max_value @ 7536
	.bits		0x4,16
			; setting_detail[23].type @ 7568
	.bits	settings + 240,32		; setting_detail[23].value @ 7584
	.bits		0,32
			; setting_detail[23].get_value @ 7616
	.bits		0,32
			; setting_detail[23].is_available @ 7648
	.bits		0x19,16
			; setting_detail[24].id @ 7680
	.bits		0xb,16
			; setting_detail[24].group @ 7696
	.bits	$C$FSL57,32		; setting_detail[24].name @ 7712
	.bits	$C$FSL55,32		; setting_detail[24].unit @ 7744
	.bits		0x6,16
			; setting_detail[24].datatype @ 7776
	.bits	$C$FSL56,32		; setting_detail[24].format @ 7792
	.bits		0,32
			; setting_detail[24].min_value @ 7824
	.bits		0,32
			; setting_detail[24].max_value @ 7856
	.bits		0x4,16
			; setting_detail[24].type @ 7888
	.bits	settings + 244,32		; setting_detail[24].value @ 7904
	.bits		0,32
			; setting_detail[24].get_value @ 7936
	.bits		0,32
			; setting_detail[24].is_available @ 7968
	.bits		0x1a,16
			; setting_detail[25].id @ 8000
	.bits		0xb,16
			; setting_detail[25].group @ 8016
	.bits	$C$FSL58,32		; setting_detail[25].name @ 8032
	.bits	$C$FSL25,32		; setting_detail[25].unit @ 8064
	.bits		0xb,16
			; setting_detail[25].datatype @ 8096
	.bits	$C$FSL59,32		; setting_detail[25].format @ 8112
	.bits		0,32
			; setting_detail[25].min_value @ 8144
	.bits		0,32
			; setting_detail[25].max_value @ 8176
	.bits		0x4,16
			; setting_detail[25].type @ 8208
	.bits	settings + 254,32		; setting_detail[25].value @ 8224
	.bits		0,32
			; setting_detail[25].get_value @ 8256
	.bits		0,32
			; setting_detail[25].is_available @ 8288
	.bits		0x1b,16
			; setting_detail[26].id @ 8320
	.bits		0xb,16
			; setting_detail[26].group @ 8336
	.bits	$C$FSL60,32		; setting_detail[26].name @ 8352
	.bits	$C$FSL38,32		; setting_detail[26].unit @ 8384
	.bits		0x6,16
			; setting_detail[26].datatype @ 8416
	.bits	$C$FSL39,32		; setting_detail[26].format @ 8432
	.bits		0,32
			; setting_detail[26].min_value @ 8464
	.bits		0,32
			; setting_detail[26].max_value @ 8496
	.bits		0x4,16
			; setting_detail[26].type @ 8528
	.bits	settings + 248,32		; setting_detail[26].value @ 8544
	.bits		0,32
			; setting_detail[26].get_value @ 8576
	.bits		0,32
			; setting_detail[26].is_available @ 8608
	.bits		0x1c,16
			; setting_detail[27].id @ 8640
	.bits		0x1,16
			; setting_detail[27].group @ 8656
	.bits	$C$FSL61,32		; setting_detail[27].name @ 8672
	.bits	$C$FSL38,32		; setting_detail[27].unit @ 8704
	.bits		0x6,16
			; setting_detail[27].datatype @ 8736
	.bits	$C$FSL39,32		; setting_detail[27].format @ 8752
	.bits		0,32
			; setting_detail[27].min_value @ 8784
	.bits		0,32
			; setting_detail[27].max_value @ 8816
	.bits		0x2,16
			; setting_detail[27].type @ 8848
	.bits	settings + 12,32		; setting_detail[27].value @ 8864
	.bits		0,32
			; setting_detail[27].get_value @ 8896
	.bits		0,32
			; setting_detail[27].is_available @ 8928
	.bits		0x1d,16
			; setting_detail[28].id @ 8960
	.bits		0x1b,16
			; setting_detail[28].group @ 8976
	.bits	$C$FSL62,32		; setting_detail[28].name @ 8992
	.bits	$C$FSL21,32		; setting_detail[28].unit @ 9024
	.bits		0x6,16
			; setting_detail[28].datatype @ 9056
	.bits	$C$FSL22,32		; setting_detail[28].format @ 9072
	.bits		0,32
			; setting_detail[28].min_value @ 9104
	.bits	$C$FSL63,32		; setting_detail[28].max_value @ 9136
	.bits		0x2,16
			; setting_detail[28].type @ 9168
	.bits	settings + 228,32		; setting_detail[28].value @ 9184
	.bits		0,32
			; setting_detail[28].get_value @ 9216
	.bits		0,32
			; setting_detail[28].is_available @ 9248
	.bits		0x1e,16
			; setting_detail[29].id @ 9280
	.bits		0x6,16
			; setting_detail[29].group @ 9296
	.bits	$C$FSL64,32		; setting_detail[29].name @ 9312
	.bits	$C$FSL65,32		; setting_detail[29].unit @ 9344
	.bits		0x6,16
			; setting_detail[29].datatype @ 9376
	.bits	$C$FSL39,32		; setting_detail[29].format @ 9392
	.bits		0,32
			; setting_detail[29].min_value @ 9424
	.bits		0,32
			; setting_detail[29].max_value @ 9456
	.bits		0x4,16
			; setting_detail[29].type @ 9488
	.bits	settings + 102,32		; setting_detail[29].value @ 9504
	.bits		0,32
			; setting_detail[29].get_value @ 9536
	.bits	is_setting_available,32		; setting_detail[29].is_available @ 9568
	.bits		0x1f,16
			; setting_detail[30].id @ 9600
	.bits		0x6,16
			; setting_detail[30].group @ 9616
	.bits	$C$FSL66,32		; setting_detail[30].name @ 9632
	.bits	$C$FSL65,32		; setting_detail[30].unit @ 9664
	.bits		0x6,16
			; setting_detail[30].datatype @ 9696
	.bits	$C$FSL39,32		; setting_detail[30].format @ 9712
	.bits		0,32
			; setting_detail[30].min_value @ 9744
	.bits		0,32
			; setting_detail[30].max_value @ 9776
	.bits		0x4,16
			; setting_detail[30].type @ 9808
	.bits	settings + 106,32		; setting_detail[30].value @ 9824
	.bits		0,32
			; setting_detail[30].get_value @ 9856
	.bits	is_setting_available,32		; setting_detail[30].is_available @ 9888
	.bits		0x20,16
			; setting_detail[31].id @ 9920
	.bits		0x1,16
			; setting_detail[31].group @ 9936
	.bits	$C$FSL67,32		; setting_detail[31].name @ 9952
	.bits		0,32
			; setting_detail[31].unit @ 9984
	.bits		0x3,16
			; setting_detail[31].datatype @ 10016
	.bits	$C$FSL68,32		; setting_detail[31].format @ 10032
	.bits		0,32
			; setting_detail[31].min_value @ 10064
	.bits		0,32
			; setting_detail[31].max_value @ 10096
	.bits		0x5,16
			; setting_detail[31].type @ 10128
	.bits	set_mode,32		; setting_detail[31].value @ 10144
	.bits	get_int,32		; setting_detail[31].get_value @ 10176
	.bits		0,32
			; setting_detail[31].is_available @ 10208
	.bits		0x21,16
			; setting_detail[32].id @ 10240
	.bits		0x6,16
			; setting_detail[32].group @ 10256
	.bits	$C$FSL69,32		; setting_detail[32].name @ 10272
	.bits	$C$FSL70,32		; setting_detail[32].unit @ 10304
	.bits		0x6,16
			; setting_detail[32].datatype @ 10336
	.bits	$C$FSL71,32		; setting_detail[32].format @ 10352
	.bits		0,32
			; setting_detail[32].min_value @ 10384
	.bits		0,32
			; setting_detail[32].max_value @ 10416
	.bits		0x2,16
			; setting_detail[32].type @ 10448
	.bits	settings + 110,32		; setting_detail[32].value @ 10464
	.bits		0,32
			; setting_detail[32].get_value @ 10496
	.bits	is_setting_available,32		; setting_detail[32].is_available @ 10528
	.bits		0x22,16
			; setting_detail[33].id @ 10560
	.bits		0x6,16
			; setting_detail[33].group @ 10576
	.bits	$C$FSL72,32		; setting_detail[33].name @ 10592
	.bits	$C$FSL73,32		; setting_detail[33].unit @ 10624
	.bits		0x6,16
			; setting_detail[33].datatype @ 10656
	.bits	$C$FSL74,32		; setting_detail[33].format @ 10672
	.bits		0,32
			; setting_detail[33].min_value @ 10704
	.bits	$C$FSL75,32		; setting_detail[33].max_value @ 10736
	.bits		0x2,16
			; setting_detail[33].type @ 10768
	.bits	settings + 118,32		; setting_detail[33].value @ 10784
	.bits		0,32
			; setting_detail[33].get_value @ 10816
	.bits	is_setting_available,32		; setting_detail[33].is_available @ 10848
	.bits		0x23,16
			; setting_detail[34].id @ 10880
	.bits		0x6,16
			; setting_detail[34].group @ 10896
	.bits	$C$FSL76,32		; setting_detail[34].name @ 10912
	.bits	$C$FSL73,32		; setting_detail[34].unit @ 10944
	.bits		0x6,16
			; setting_detail[34].datatype @ 10976
	.bits	$C$FSL74,32		; setting_detail[34].format @ 10992
	.bits		0,32
			; setting_detail[34].min_value @ 11024
	.bits	$C$FSL75,32		; setting_detail[34].max_value @ 11056
	.bits		0x2,16
			; setting_detail[34].type @ 11088
	.bits	settings + 122,32		; setting_detail[34].value @ 11104
	.bits		0,32
			; setting_detail[34].get_value @ 11136
	.bits	is_setting_available,32		; setting_detail[34].is_available @ 11168
	.bits		0x24,16
			; setting_detail[35].id @ 11200
	.bits		0x6,16
			; setting_detail[35].group @ 11216
	.bits	$C$FSL77,32		; setting_detail[35].name @ 11232
	.bits	$C$FSL73,32		; setting_detail[35].unit @ 11264
	.bits		0x6,16
			; setting_detail[35].datatype @ 11296
	.bits	$C$FSL74,32		; setting_detail[35].format @ 11312
	.bits		0,32
			; setting_detail[35].min_value @ 11344
	.bits	$C$FSL75,32		; setting_detail[35].max_value @ 11376
	.bits		0x2,16
			; setting_detail[35].type @ 11408
	.bits	settings + 126,32		; setting_detail[35].value @ 11424
	.bits		0,32
			; setting_detail[35].get_value @ 11456
	.bits	is_setting_available,32		; setting_detail[35].is_available @ 11488
	.bits		0x25,16
			; setting_detail[36].id @ 11520
	.bits		0x1b,16
			; setting_detail[36].group @ 11536
	.bits	$C$FSL78,32		; setting_detail[36].name @ 11552
	.bits		0,32
			; setting_detail[36].unit @ 11584
	.bits		0x4,16
			; setting_detail[36].datatype @ 11616
	.bits		0,32
			; setting_detail[36].format @ 11632
	.bits		0,32
			; setting_detail[36].min_value @ 11664
	.bits		0,32
			; setting_detail[36].max_value @ 11696
	.bits		0x2,16
			; setting_detail[36].type @ 11728
	.bits	settings + 222,32		; setting_detail[36].value @ 11744
	.bits		0,32
			; setting_detail[36].get_value @ 11776
	.bits		0,32
			; setting_detail[36].is_available @ 11808
	.bits		0x26,16
			; setting_detail[37].id @ 11840
	.bits		0x6,16
			; setting_detail[37].group @ 11856
	.bits	$C$FSL79,32		; setting_detail[37].name @ 11872
	.bits		0,32
			; setting_detail[37].unit @ 11904
	.bits		0xb,16
			; setting_detail[37].datatype @ 11936
	.bits	$C$FSL80,32		; setting_detail[37].format @ 11952
	.bits		0,32
			; setting_detail[37].min_value @ 11984
	.bits		0,32
			; setting_detail[37].max_value @ 12016
	.bits		0x2,16
			; setting_detail[37].type @ 12048
	.bits	settings + 214,32		; setting_detail[37].value @ 12064
	.bits		0,32
			; setting_detail[37].get_value @ 12096
	.bits	is_setting_available,32		; setting_detail[37].is_available @ 12128
	.bits		0x27,16
			; setting_detail[38].id @ 12160
	.bits		0x1,16
			; setting_detail[38].group @ 12176
	.bits	$C$FSL81,32		; setting_detail[38].name @ 12192
	.bits		0,32
			; setting_detail[38].unit @ 12224
	.bits		0,16
			; setting_detail[38].datatype @ 12256
	.bits		0,32
			; setting_detail[38].format @ 12272
	.bits		0,32
			; setting_detail[38].min_value @ 12304
	.bits		0,32
			; setting_detail[38].max_value @ 12336
	.bits		0x3,16
			; setting_detail[38].type @ 12368
	.bits	set_enable_legacy_rt_commands,32		; setting_detail[38].value @ 12384
	.bits	get_int,32		; setting_detail[38].get_value @ 12416
	.bits		0,32
			; setting_detail[38].is_available @ 12448
	.bits		0x28,16
			; setting_detail[39].id @ 12480
	.bits		0xe,16
			; setting_detail[39].group @ 12496
	.bits	$C$FSL82,32		; setting_detail[39].name @ 12512
	.bits		0,32
			; setting_detail[39].unit @ 12544
	.bits		0,16
			; setting_detail[39].datatype @ 12576
	.bits		0,32
			; setting_detail[39].format @ 12592
	.bits		0,32
			; setting_detail[39].min_value @ 12624
	.bits		0,32
			; setting_detail[39].max_value @ 12656
	.bits		0x3,16
			; setting_detail[39].type @ 12688
	.bits	set_jog_soft_limited,32		; setting_detail[39].value @ 12704
	.bits	get_int,32		; setting_detail[39].get_value @ 12736
	.bits		0,32
			; setting_detail[39].is_available @ 12768
	.bits		0x2b,16
			; setting_detail[40].id @ 12800
	.bits		0xb,16
			; setting_detail[40].group @ 12816
	.bits	$C$FSL83,32		; setting_detail[40].name @ 12832
	.bits		0,32
			; setting_detail[40].unit @ 12864
	.bits		0xa,16
			; setting_detail[40].datatype @ 12896
	.bits	$C$FSL59,32		; setting_detail[40].format @ 12912
	.bits	$C$FSL84,32		; setting_detail[40].min_value @ 12944
	.bits	$C$FSL85,32		; setting_detail[40].max_value @ 12976
	.bits		0x2,16
			; setting_detail[40].type @ 13008
	.bits	settings + 253,32		; setting_detail[40].value @ 13024
	.bits		0,32
			; setting_detail[40].get_value @ 13056
	.bits		0,32
			; setting_detail[40].is_available @ 13088
	.bits		0x2c,16
			; setting_detail[41].id @ 13120
	.bits		0xb,16
			; setting_detail[41].group @ 13136
	.bits	$C$FSL86,32		; setting_detail[41].name @ 13152
	.bits		0,32
			; setting_detail[41].unit @ 13184
	.bits		0x4,16
			; setting_detail[41].datatype @ 13216
	.bits		0,32
			; setting_detail[41].format @ 13232
	.bits		0,32
			; setting_detail[41].min_value @ 13264
	.bits		0,32
			; setting_detail[41].max_value @ 13296
	.bits		0x3,16
			; setting_detail[41].type @ 13328
	.bits	set_homing_cycle,32		; setting_detail[41].value @ 13344
	.bits	get_int,32		; setting_detail[41].get_value @ 13376
	.bits		0,32
			; setting_detail[41].is_available @ 13408
	.bits		0x2d,16
			; setting_detail[42].id @ 13440
	.bits		0xb,16
			; setting_detail[42].group @ 13456
	.bits	$C$FSL87,32		; setting_detail[42].name @ 13472
	.bits		0,32
			; setting_detail[42].unit @ 13504
	.bits		0x4,16
			; setting_detail[42].datatype @ 13536
	.bits		0,32
			; setting_detail[42].format @ 13552
	.bits		0,32
			; setting_detail[42].min_value @ 13584
	.bits		0,32
			; setting_detail[42].max_value @ 13616
	.bits		0x3,16
			; setting_detail[42].type @ 13648
	.bits	set_homing_cycle,32		; setting_detail[42].value @ 13664
	.bits	get_int,32		; setting_detail[42].get_value @ 13696
	.bits		0,32
			; setting_detail[42].is_available @ 13728
	.bits		0x2e,16
			; setting_detail[43].id @ 13760
	.bits		0xb,16
			; setting_detail[43].group @ 13776
	.bits	$C$FSL88,32		; setting_detail[43].name @ 13792
	.bits		0,32
			; setting_detail[43].unit @ 13824
	.bits		0x4,16
			; setting_detail[43].datatype @ 13856
	.bits		0,32
			; setting_detail[43].format @ 13872
	.bits		0,32
			; setting_detail[43].min_value @ 13904
	.bits		0,32
			; setting_detail[43].max_value @ 13936
	.bits		0x3,16
			; setting_detail[43].type @ 13968
	.bits	set_homing_cycle,32		; setting_detail[43].value @ 13984
	.bits	get_int,32		; setting_detail[43].get_value @ 14016
	.bits		0,32
			; setting_detail[43].is_available @ 14048
	.bits		0x3e,16
			; setting_detail[44].id @ 14080
	.bits		0x1,16
			; setting_detail[44].group @ 14096
	.bits	$C$FSL89,32		; setting_detail[44].name @ 14112
	.bits		0,32
			; setting_detail[44].unit @ 14144
	.bits		0,16
			; setting_detail[44].datatype @ 14176
	.bits		0,32
			; setting_detail[44].format @ 14192
	.bits		0,32
			; setting_detail[44].min_value @ 14224
	.bits		0,32
			; setting_detail[44].max_value @ 14256
	.bits		0x3,16
			; setting_detail[44].type @ 14288
	.bits	set_sleep_enable,32		; setting_detail[44].value @ 14304
	.bits	get_int,32		; setting_detail[44].get_value @ 14336
	.bits		0,32
			; setting_detail[44].is_available @ 14368
	.bits		0x3f,16
			; setting_detail[45].id @ 14400
	.bits		0x1,16
			; setting_detail[45].group @ 14416
	.bits	$C$FSL90,32		; setting_detail[45].name @ 14432
	.bits		0,32
			; setting_detail[45].unit @ 14464
	.bits		0x1,16
			; setting_detail[45].datatype @ 14496
	.bits	$C$FSL91,32		; setting_detail[45].format @ 14512
	.bits		0,32
			; setting_detail[45].min_value @ 14544
	.bits		0,32
			; setting_detail[45].max_value @ 14576
	.bits		0x3,16
			; setting_detail[45].type @ 14608
	.bits	set_hold_actions,32		; setting_detail[45].value @ 14624
	.bits	get_int,32		; setting_detail[45].get_value @ 14656
	.bits		0,32
			; setting_detail[45].is_available @ 14688
	.bits		0x40,16
			; setting_detail[46].id @ 14720
	.bits		0x1,16
			; setting_detail[46].group @ 14736
	.bits	$C$FSL92,32		; setting_detail[46].name @ 14752
	.bits		0,32
			; setting_detail[46].unit @ 14784
	.bits		0,16
			; setting_detail[46].datatype @ 14816
	.bits		0,32
			; setting_detail[46].format @ 14832
	.bits		0,32
			; setting_detail[46].min_value @ 14864
	.bits		0,32
			; setting_detail[46].max_value @ 14896
	.bits		0x3,16
			; setting_detail[46].type @ 14928
	.bits	set_force_initialization_alarm,32		; setting_detail[46].value @ 14944
	.bits	get_int,32		; setting_detail[46].get_value @ 14976
	.bits		0,32
			; setting_detail[46].is_available @ 15008
	.bits		0x41,16
			; setting_detail[47].id @ 15040
	.bits		0xc,16
			; setting_detail[47].group @ 15056
	.bits	$C$FSL93,32		; setting_detail[47].name @ 15072
	.bits		0,32
			; setting_detail[47].unit @ 15104
	.bits		0,16
			; setting_detail[47].datatype @ 15136
	.bits		0,32
			; setting_detail[47].format @ 15152
	.bits		0,32
			; setting_detail[47].min_value @ 15184
	.bits		0,32
			; setting_detail[47].max_value @ 15216
	.bits		0x3,16
			; setting_detail[47].type @ 15248
	.bits	set_probe_allow_feed_override,32		; setting_detail[47].value @ 15264
	.bits	get_int,32		; setting_detail[47].get_value @ 15296
	.bits	is_setting_available,32		; setting_detail[47].is_available @ 15328
	.bits		0x50,16
			; setting_detail[48].id @ 15360
	.bits		0x8,16
			; setting_detail[48].group @ 15376
	.bits	$C$FSL94,32		; setting_detail[48].name @ 15392
	.bits		0,32
			; setting_detail[48].unit @ 15424
	.bits		0x6,16
			; setting_detail[48].datatype @ 15456
	.bits	$C$FSL95,32		; setting_detail[48].format @ 15472
	.bits		0,32
			; setting_detail[48].min_value @ 15504
	.bits		0,32
			; setting_detail[48].max_value @ 15536
	.bits		0x2,16
			; setting_detail[48].type @ 15568
	.bits	settings + 182,32		; setting_detail[48].value @ 15584
	.bits		0,32
			; setting_detail[48].get_value @ 15616
	.bits	is_group_available,32		; setting_detail[48].is_available @ 15648
	.bits		0x51,16
			; setting_detail[49].id @ 15680
	.bits		0x8,16
			; setting_detail[49].group @ 15696
	.bits	$C$FSL96,32		; setting_detail[49].name @ 15712
	.bits		0,32
			; setting_detail[49].unit @ 15744
	.bits		0x6,16
			; setting_detail[49].datatype @ 15776
	.bits	$C$FSL95,32		; setting_detail[49].format @ 15792
	.bits		0,32
			; setting_detail[49].min_value @ 15824
	.bits		0,32
			; setting_detail[49].max_value @ 15856
	.bits		0x2,16
			; setting_detail[49].type @ 15888
	.bits	settings + 186,32		; setting_detail[49].value @ 15904
	.bits		0,32
			; setting_detail[49].get_value @ 15936
	.bits	is_group_available,32		; setting_detail[49].is_available @ 15968
	.bits		0x52,16
			; setting_detail[50].id @ 16000
	.bits		0x8,16
			; setting_detail[50].group @ 16016
	.bits	$C$FSL97,32		; setting_detail[50].name @ 16032
	.bits		0,32
			; setting_detail[50].unit @ 16064
	.bits		0x6,16
			; setting_detail[50].datatype @ 16096
	.bits	$C$FSL95,32		; setting_detail[50].format @ 16112
	.bits		0,32
			; setting_detail[50].min_value @ 16144
	.bits		0,32
			; setting_detail[50].max_value @ 16176
	.bits		0x2,16
			; setting_detail[50].type @ 16208
	.bits	settings + 190,32		; setting_detail[50].value @ 16224
	.bits		0,32
			; setting_detail[50].get_value @ 16256
	.bits	is_group_available,32		; setting_detail[50].is_available @ 16288
	.bits		0x54,16
			; setting_detail[51].id @ 16320
	.bits		0x8,16
			; setting_detail[51].group @ 16336
	.bits	$C$FSL98,32		; setting_detail[51].name @ 16352
	.bits		0,32
			; setting_detail[51].unit @ 16384
	.bits		0x6,16
			; setting_detail[51].datatype @ 16416
	.bits	$C$FSL95,32		; setting_detail[51].format @ 16432
	.bits		0,32
			; setting_detail[51].min_value @ 16464
	.bits		0,32
			; setting_detail[51].max_value @ 16496
	.bits		0x2,16
			; setting_detail[51].type @ 16528
	.bits	settings + 210,32		; setting_detail[51].value @ 16544
	.bits		0,32
			; setting_detail[51].get_value @ 16576
	.bits	is_group_available,32		; setting_detail[51].is_available @ 16608
	.bits		0x55,16
			; setting_detail[52].id @ 16640
	.bits		0x8,16
			; setting_detail[52].group @ 16656
	.bits	$C$FSL99,32		; setting_detail[52].name @ 16672
	.bits		0,32
			; setting_detail[52].unit @ 16704
	.bits		0x6,16
			; setting_detail[52].datatype @ 16736
	.bits	$C$FSL95,32		; setting_detail[52].format @ 16752
	.bits		0,32
			; setting_detail[52].min_value @ 16784
	.bits		0,32
			; setting_detail[52].max_value @ 16816
	.bits		0x2,16
			; setting_detail[52].type @ 16848
	.bits	settings + 198,32		; setting_detail[52].value @ 16864
	.bits		0,32
			; setting_detail[52].get_value @ 16896
	.bits	is_group_available,32		; setting_detail[52].is_available @ 16928
	.bits		0x5a,16
			; setting_detail[53].id @ 16960
	.bits		0x7,16
			; setting_detail[53].group @ 16976
	.bits	$C$FSL100,32		; setting_detail[53].name @ 16992
	.bits		0,32
			; setting_detail[53].unit @ 17024
	.bits		0x6,16
			; setting_detail[53].datatype @ 17056
	.bits	$C$FSL95,32		; setting_detail[53].format @ 17072
	.bits		0,32
			; setting_detail[53].min_value @ 17104
	.bits		0,32
			; setting_detail[53].max_value @ 17136
	.bits		0x2,16
			; setting_detail[53].type @ 17168
	.bits	settings + 304,32		; setting_detail[53].value @ 17184
	.bits		0,32
			; setting_detail[53].get_value @ 17216
	.bits	is_group_available,32		; setting_detail[53].is_available @ 17248
	.bits		0x5b,16
			; setting_detail[54].id @ 17280
	.bits		0x7,16
			; setting_detail[54].group @ 17296
	.bits	$C$FSL101,32		; setting_detail[54].name @ 17312
	.bits		0,32
			; setting_detail[54].unit @ 17344
	.bits		0x6,16
			; setting_detail[54].datatype @ 17376
	.bits	$C$FSL95,32		; setting_detail[54].format @ 17392
	.bits		0,32
			; setting_detail[54].min_value @ 17424
	.bits		0,32
			; setting_detail[54].max_value @ 17456
	.bits		0x2,16
			; setting_detail[54].type @ 17488
	.bits	settings + 308,32		; setting_detail[54].value @ 17504
	.bits		0,32
			; setting_detail[54].get_value @ 17536
	.bits	is_group_available,32		; setting_detail[54].is_available @ 17568
	.bits		0x5c,16
			; setting_detail[55].id @ 17600
	.bits		0x7,16
			; setting_detail[55].group @ 17616
	.bits	$C$FSL102,32		; setting_detail[55].name @ 17632
	.bits		0,32
			; setting_detail[55].unit @ 17664
	.bits		0x6,16
			; setting_detail[55].datatype @ 17696
	.bits	$C$FSL95,32		; setting_detail[55].format @ 17712
	.bits		0,32
			; setting_detail[55].min_value @ 17744
	.bits		0,32
			; setting_detail[55].max_value @ 17776
	.bits		0x2,16
			; setting_detail[55].type @ 17808
	.bits	settings + 312,32		; setting_detail[55].value @ 17824
	.bits		0,32
			; setting_detail[55].get_value @ 17856
	.bits	is_group_available,32		; setting_detail[55].is_available @ 17888
	.bits		0x5f,16
			; setting_detail[56].id @ 17920
	.bits		0x7,16
			; setting_detail[56].group @ 17936
	.bits	$C$FSL103,32		; setting_detail[56].name @ 17952
	.bits		0,32
			; setting_detail[56].unit @ 17984
	.bits		0x6,16
			; setting_detail[56].datatype @ 18016
	.bits	$C$FSL95,32		; setting_detail[56].format @ 18032
	.bits		0,32
			; setting_detail[56].min_value @ 18064
	.bits		0,32
			; setting_detail[56].max_value @ 18096
	.bits		0x2,16
			; setting_detail[56].type @ 18128
	.bits	settings + 320,32		; setting_detail[56].value @ 18144
	.bits		0,32
			; setting_detail[56].get_value @ 18176
	.bits	is_group_available,32		; setting_detail[56].is_available @ 18208
	.bits		0x64,16
			; setting_detail[57].id @ 18240
	.bits		0x1e,16
			; setting_detail[57].group @ 18256
	.bits	$C$FSL104,32		; setting_detail[57].name @ 18272
	.bits	$C$FSL105,32		; setting_detail[57].unit @ 18304
	.bits		0x6,16
			; setting_detail[57].datatype @ 18336
	.bits	$C$FSL39,32		; setting_detail[57].format @ 18352
	.bits		0,32
			; setting_detail[57].min_value @ 18384
	.bits		0,32
			; setting_detail[57].max_value @ 18416
	.bits		0x5,16
			; setting_detail[57].type @ 18448
	.bits	set_axis_setting,32		; setting_detail[57].value @ 18464
	.bits	get_float,32		; setting_detail[57].get_value @ 18496
	.bits		0,32
			; setting_detail[57].is_available @ 18528
	.bits		0x6e,16
			; setting_detail[58].id @ 18560
	.bits		0x1e,16
			; setting_detail[58].group @ 18576
	.bits	$C$FSL106,32		; setting_detail[58].name @ 18592
	.bits	$C$FSL55,32		; setting_detail[58].unit @ 18624
	.bits		0x6,16
			; setting_detail[58].datatype @ 18656
	.bits	$C$FSL39,32		; setting_detail[58].format @ 18672
	.bits		0,32
			; setting_detail[58].min_value @ 18704
	.bits		0,32
			; setting_detail[58].max_value @ 18736
	.bits		0x5,16
			; setting_detail[58].type @ 18768
	.bits	set_axis_setting,32		; setting_detail[58].value @ 18784
	.bits	get_float,32		; setting_detail[58].get_value @ 18816
	.bits		0,32
			; setting_detail[58].is_available @ 18848
	.bits		0x78,16
			; setting_detail[59].id @ 18880
	.bits		0x1e,16
			; setting_detail[59].group @ 18896
	.bits	$C$FSL107,32		; setting_detail[59].name @ 18912
	.bits	$C$FSL108,32		; setting_detail[59].unit @ 18944
	.bits		0x6,16
			; setting_detail[59].datatype @ 18976
	.bits	$C$FSL39,32		; setting_detail[59].format @ 18992
	.bits		0,32
			; setting_detail[59].min_value @ 19024
	.bits		0,32
			; setting_detail[59].max_value @ 19056
	.bits		0x5,16
			; setting_detail[59].type @ 19088
	.bits	set_axis_setting,32		; setting_detail[59].value @ 19104
	.bits	get_float,32		; setting_detail[59].get_value @ 19136
	.bits		0,32
			; setting_detail[59].is_available @ 19168
	.bits		0x82,16
			; setting_detail[60].id @ 19200
	.bits		0x1e,16
			; setting_detail[60].group @ 19216
	.bits	$C$FSL109,32		; setting_detail[60].name @ 19232
	.bits	$C$FSL38,32		; setting_detail[60].unit @ 19264
	.bits		0x6,16
			; setting_detail[60].datatype @ 19296
	.bits	$C$FSL39,32		; setting_detail[60].format @ 19312
	.bits		0,32
			; setting_detail[60].min_value @ 19344
	.bits		0,32
			; setting_detail[60].max_value @ 19376
	.bits		0x5,16
			; setting_detail[60].type @ 19408
	.bits	set_axis_setting,32		; setting_detail[60].value @ 19424
	.bits	get_float,32		; setting_detail[60].get_value @ 19456
	.bits		0,32
			; setting_detail[60].is_available @ 19488
	.bits		0xaa,16
			; setting_detail[61].id @ 19520
	.bits		0x1e,16
			; setting_detail[61].group @ 19536
	.bits	$C$FSL110,32		; setting_detail[61].name @ 19552
	.bits	$C$FSL38,32		; setting_detail[61].unit @ 19584
	.bits		0x6,16
			; setting_detail[61].datatype @ 19616
	.bits	$C$FSL111,32		; setting_detail[61].format @ 19632
	.bits	$C$FSL112,32		; setting_detail[61].min_value @ 19664
	.bits	$C$FSL113,32		; setting_detail[61].max_value @ 19696
	.bits		0x3,16
			; setting_detail[61].type @ 19728
	.bits	set_axis_setting,32		; setting_detail[61].value @ 19744
	.bits	get_float,32		; setting_detail[61].get_value @ 19776
	.bits	is_setting_available,32		; setting_detail[61].is_available @ 19808
	.bits		0x154,16
			; setting_detail[62].id @ 19840
	.bits		0x6,16
			; setting_detail[62].group @ 19856
	.bits	$C$FSL114,32		; setting_detail[62].name @ 19872
	.bits	$C$FSL73,32		; setting_detail[62].unit @ 19904
	.bits		0x6,16
			; setting_detail[62].datatype @ 19936
	.bits	$C$FSL74,32		; setting_detail[62].format @ 19952
	.bits		0,32
			; setting_detail[62].min_value @ 19984
	.bits		0,32
			; setting_detail[62].max_value @ 20016
	.bits		0x2,16
			; setting_detail[62].type @ 20048
	.bits	settings + 130,32		; setting_detail[62].value @ 20064
	.bits		0,32
			; setting_detail[62].get_value @ 20096
	.bits	is_setting_available,32		; setting_detail[62].is_available @ 20128
	.bits		0x155,16
			; setting_detail[63].id @ 20160
	.bits		0x9,16
			; setting_detail[63].group @ 20176
	.bits	$C$FSL115,32		; setting_detail[63].name @ 20192
	.bits		0,32
			; setting_detail[63].unit @ 20224
	.bits		0x3,16
			; setting_detail[63].datatype @ 20256
	.bits	$C$FSL116,32		; setting_detail[63].format @ 20272
	.bits		0,32
			; setting_detail[63].min_value @ 20304
	.bits		0,32
			; setting_detail[63].max_value @ 20336
	.bits		0x3,16
			; setting_detail[63].type @ 20368
	.bits	set_tool_change_mode,32		; setting_detail[63].value @ 20384
	.bits	get_int,32		; setting_detail[63].get_value @ 20416
	.bits		0,32
			; setting_detail[63].is_available @ 20448
	.bits		0x156,16
			; setting_detail[64].id @ 20480
	.bits		0x9,16
			; setting_detail[64].group @ 20496
	.bits	$C$FSL117,32		; setting_detail[64].name @ 20512
	.bits	$C$FSL38,32		; setting_detail[64].unit @ 20544
	.bits		0x6,16
			; setting_detail[64].datatype @ 20576
	.bits	$C$FSL56,32		; setting_detail[64].format @ 20592
	.bits		0,32
			; setting_detail[64].min_value @ 20624
	.bits		0,32
			; setting_detail[64].max_value @ 20656
	.bits		0x3,16
			; setting_detail[64].type @ 20688
	.bits	set_tool_change_probing_distance,32		; setting_detail[64].value @ 20704
	.bits	get_float,32		; setting_detail[64].get_value @ 20736
	.bits		0,32
			; setting_detail[64].is_available @ 20768
	.bits		0x157,16
			; setting_detail[65].id @ 20800
	.bits		0x9,16
			; setting_detail[65].group @ 20816
	.bits	$C$FSL118,32		; setting_detail[65].name @ 20832
	.bits	$C$FSL55,32		; setting_detail[65].unit @ 20864
	.bits		0x6,16
			; setting_detail[65].datatype @ 20896
	.bits	$C$FSL56,32		; setting_detail[65].format @ 20912
	.bits		0,32
			; setting_detail[65].min_value @ 20944
	.bits		0,32
			; setting_detail[65].max_value @ 20976
	.bits		0x2,16
			; setting_detail[65].type @ 21008
	.bits	settings + 18,32		; setting_detail[65].value @ 21024
	.bits		0,32
			; setting_detail[65].get_value @ 21056
	.bits		0,32
			; setting_detail[65].is_available @ 21088
	.bits		0x158,16
			; setting_detail[66].id @ 21120
	.bits		0x9,16
			; setting_detail[66].group @ 21136
	.bits	$C$FSL119,32		; setting_detail[66].name @ 21152
	.bits	$C$FSL55,32		; setting_detail[66].unit @ 21184
	.bits		0x6,16
			; setting_detail[66].datatype @ 21216
	.bits	$C$FSL56,32		; setting_detail[66].format @ 21232
	.bits		0,32
			; setting_detail[66].min_value @ 21264
	.bits		0,32
			; setting_detail[66].max_value @ 21296
	.bits		0x2,16
			; setting_detail[66].type @ 21328
	.bits	settings + 22,32		; setting_detail[66].value @ 21344
	.bits		0,32
			; setting_detail[66].get_value @ 21376
	.bits		0,32
			; setting_detail[66].is_available @ 21408
	.bits		0x159,16
			; setting_detail[67].id @ 21440
	.bits		0x9,16
			; setting_detail[67].group @ 21456
	.bits	$C$FSL120,32		; setting_detail[67].name @ 21472
	.bits	$C$FSL55,32		; setting_detail[67].unit @ 21504
	.bits		0x6,16
			; setting_detail[67].datatype @ 21536
	.bits	$C$FSL56,32		; setting_detail[67].format @ 21552
	.bits		0,32
			; setting_detail[67].min_value @ 21584
	.bits		0,32
			; setting_detail[67].max_value @ 21616
	.bits		0x2,16
			; setting_detail[67].type @ 21648
	.bits	settings + 26,32		; setting_detail[67].value @ 21664
	.bits		0,32
			; setting_detail[67].get_value @ 21696
	.bits		0,32
			; setting_detail[67].is_available @ 21728
	.bits		0x15b,16
			; setting_detail[68].id @ 21760
	.bits		0x4,16
			; setting_detail[68].group @ 21776
	.bits	$C$FSL121,32		; setting_detail[68].name @ 21792
	.bits	$C$FSL73,32		; setting_detail[68].unit @ 21824
	.bits		0x6,16
			; setting_detail[68].datatype @ 21856
	.bits	$C$FSL74,32		; setting_detail[68].format @ 21872
	.bits	$C$FSL122,32		; setting_detail[68].min_value @ 21904
	.bits	$C$FSL75,32		; setting_detail[68].max_value @ 21936
	.bits		0x2,16
			; setting_detail[68].type @ 21968
	.bits	settings + 260,32		; setting_detail[68].value @ 21984
	.bits		0,32
			; setting_detail[68].get_value @ 22016
	.bits	is_setting_available,32		; setting_detail[68].is_available @ 22048
	.bits		0x15c,16
			; setting_detail[69].id @ 22080
	.bits		0x4,16
			; setting_detail[69].group @ 22096
	.bits	$C$FSL123,32		; setting_detail[69].name @ 22112
	.bits	$C$FSL38,32		; setting_detail[69].unit @ 22144
	.bits		0x6,16
			; setting_detail[69].datatype @ 22176
	.bits	$C$FSL39,32		; setting_detail[69].format @ 22192
	.bits		0,32
			; setting_detail[69].min_value @ 22224
	.bits		0,32
			; setting_detail[69].max_value @ 22256
	.bits		0x2,16
			; setting_detail[69].type @ 22288
	.bits	settings + 268,32		; setting_detail[69].value @ 22304
	.bits		0,32
			; setting_detail[69].get_value @ 22336
	.bits	is_setting_available,32		; setting_detail[69].is_available @ 22368
	.bits		0x15d,16
			; setting_detail[70].id @ 22400
	.bits		0x4,16
			; setting_detail[70].group @ 22416
	.bits	$C$FSL124,32		; setting_detail[70].name @ 22432
	.bits	$C$FSL38,32		; setting_detail[70].unit @ 22464
	.bits		0x6,16
			; setting_detail[70].datatype @ 22496
	.bits	$C$FSL39,32		; setting_detail[70].format @ 22512
	.bits		0,32
			; setting_detail[70].min_value @ 22544
	.bits		0,32
			; setting_detail[70].max_value @ 22576
	.bits		0x2,16
			; setting_detail[70].type @ 22608
	.bits	settings + 264,32		; setting_detail[70].value @ 22624
	.bits		0,32
			; setting_detail[70].get_value @ 22656
	.bits	is_setting_available,32		; setting_detail[70].is_available @ 22688
	.bits		0x180,16
			; setting_detail[71].id @ 22720
	.bits		0x1,16
			; setting_detail[71].group @ 22736
	.bits	$C$FSL125,32		; setting_detail[71].name @ 22752
	.bits		0,32
			; setting_detail[71].unit @ 22784
	.bits		0,16
			; setting_detail[71].datatype @ 22816
	.bits		0,32
			; setting_detail[71].format @ 22832
	.bits		0,32
			; setting_detail[71].min_value @ 22864
	.bits		0,32
			; setting_detail[71].max_value @ 22896
	.bits		0x3,16
			; setting_detail[71].type @ 22928
	.bits	set_g92_disable_persistence,32		; setting_detail[71].value @ 22944
	.bits	get_int,32		; setting_detail[71].get_value @ 22976
	.bits		0,32
			; setting_detail[71].is_available @ 23008
	.bits		0x18a,16
			; setting_detail[72].id @ 23040
	.bits		0x6,16
			; setting_detail[72].group @ 23056
	.bits	$C$FSL126,32		; setting_detail[72].name @ 23072
	.bits	$C$FSL127,32		; setting_detail[72].unit @ 23104
	.bits		0x6,16
			; setting_detail[72].datatype @ 23136
	.bits	$C$FSL22,32		; setting_detail[72].format @ 23152
	.bits	$C$FSL128,32		; setting_detail[72].min_value @ 23184
	.bits	$C$FSL129,32		; setting_detail[72].max_value @ 23216
	.bits		0x2,16
			; setting_detail[72].type @ 23248
	.bits	settings + 296,32		; setting_detail[72].value @ 23264
	.bits		0,32
			; setting_detail[72].get_value @ 23296
	.bits	is_setting_available,32		; setting_detail[72].is_available @ 23328

$C$DW$14	.dwtag  DW_TAG_variable
	.dwattr $C$DW$14, DW_AT_name("setting_detail")
	.dwattr $C$DW$14, DW_AT_TI_symbol_name("setting_detail")
	.dwattr $C$DW$14, DW_AT_type(*$C$DW$T$1179)
	.dwattr $C$DW$14, DW_AT_location[DW_OP_addr setting_detail]
	.dwattr $C$DW$14, DW_AT_decl_file("../grbl/settings.c")
	.dwattr $C$DW$14, DW_AT_decl_line(0x17c)
	.dwattr $C$DW$14, DW_AT_decl_column(0x27)

	.sect	".data:setting_details", RW
	.align	2
	.elfsym	setting_details,SYM_SIZE(32)
setting_details:
	.bits		0x13,8
			; setting_details.n_groups @ 0
	.bits		0,8

	.bits	setting_group_detail,32		; setting_details.groups @ 16
	.bits		0x49,16
			; setting_details.n_settings @ 48
	.bits	setting_detail,32		; setting_details.settings @ 64
	.bits		0,32
			; setting_details.next @ 96
	.bits		0,32
			; setting_details.on_changed @ 128
	.bits	settings_write_global,32		; setting_details.save @ 160
	.space	8

$C$DW$15	.dwtag  DW_TAG_variable
	.dwattr $C$DW$15, DW_AT_name("setting_details")
	.dwattr $C$DW$15, DW_AT_TI_symbol_name("setting_details")
	.dwattr $C$DW$15, DW_AT_type(*$C$DW$T$205)
	.dwattr $C$DW$15, DW_AT_location[DW_OP_addr setting_details]
	.dwattr $C$DW$15, DW_AT_decl_file("../grbl/settings.c")
	.dwattr $C$DW$15, DW_AT_decl_line(0x293)
	.dwattr $C$DW$15, DW_AT_decl_column(0x1a)

	.sect	".data:override_backup", RW
	.align	2
	.elfsym	override_backup,SYM_SIZE(14)
override_backup:
	.bits		0,8
			; override_backup.valid @ 0
	.space	13

$C$DW$16	.dwtag  DW_TAG_variable
	.dwattr $C$DW$16, DW_AT_name("override_backup")
	.dwattr $C$DW$16, DW_AT_TI_symbol_name("override_backup")
	.dwattr $C$DW$16, DW_AT_type(*$C$DW$T$585)
	.dwattr $C$DW$16, DW_AT_location[DW_OP_addr override_backup]
	.dwattr $C$DW$16, DW_AT_decl_file("../grbl/settings.c")
	.dwattr $C$DW$16, DW_AT_decl_line(0x2a4)
	.dwattr $C$DW$16, DW_AT_decl_column(0x03)

	.data
	.align	2
	.elfsym	settingsd,SYM_SIZE(4)
settingsd:
	.bits	setting_details,32		; settingsd @ 0

$C$DW$17	.dwtag  DW_TAG_variable
	.dwattr $C$DW$17, DW_AT_name("settingsd")
	.dwattr $C$DW$17, DW_AT_TI_symbol_name("settingsd")
	.dwattr $C$DW$17, DW_AT_type(*$C$DW$T$206)
	.dwattr $C$DW$17, DW_AT_location[DW_OP_addr settingsd]
	.dwattr $C$DW$17, DW_AT_decl_file("../grbl/settings.c")
	.dwattr $C$DW$17, DW_AT_decl_line(0x2d3)
	.dwattr $C$DW$17, DW_AT_decl_column(0x1b)


$C$DW$18	.dwtag  DW_TAG_subprogram
	.dwattr $C$DW$18, DW_AT_name("state_get")
	.dwattr $C$DW$18, DW_AT_TI_symbol_name("state_get")
	.dwattr $C$DW$18, DW_AT_type(*$C$DW$T$166)
	.dwattr $C$DW$18, DW_AT_declaration
	.dwattr $C$DW$18, DW_AT_external
	.dwattr $C$DW$18, DW_AT_decl_file("..\grbl\state_machine.h")
	.dwattr $C$DW$18, DW_AT_decl_line(0x1b)
	.dwattr $C$DW$18, DW_AT_decl_column(0x0d)
	.dwendtag $C$DW$18


$C$DW$19	.dwtag  DW_TAG_subprogram
	.dwattr $C$DW$19, DW_AT_name("report_init")
	.dwattr $C$DW$19, DW_AT_TI_symbol_name("report_init")
	.dwattr $C$DW$19, DW_AT_declaration
	.dwattr $C$DW$19, DW_AT_external
	.dwattr $C$DW$19, DW_AT_decl_file("..\grbl\report.h")
	.dwattr $C$DW$19, DW_AT_decl_line(0x2c)
	.dwattr $C$DW$19, DW_AT_decl_column(0x06)
	.dwendtag $C$DW$19


$C$DW$20	.dwtag  DW_TAG_subprogram
	.dwattr $C$DW$20, DW_AT_name("system_flag_wco_change")
	.dwattr $C$DW$20, DW_AT_TI_symbol_name("system_flag_wco_change")
	.dwattr $C$DW$20, DW_AT_declaration
	.dwattr $C$DW$20, DW_AT_external
	.dwattr $C$DW$20, DW_AT_decl_file("..\grbl\system.h")
	.dwattr $C$DW$20, DW_AT_decl_line(0x123)
	.dwattr $C$DW$20, DW_AT_decl_column(0x06)
	.dwendtag $C$DW$20


$C$DW$21	.dwtag  DW_TAG_subprogram
	.dwattr $C$DW$21, DW_AT_name("limits_set_homing_axes")
	.dwattr $C$DW$21, DW_AT_TI_symbol_name("limits_set_homing_axes")
	.dwattr $C$DW$21, DW_AT_declaration
	.dwattr $C$DW$21, DW_AT_external
	.dwattr $C$DW$21, DW_AT_decl_file("..\grbl\limits.h")
	.dwattr $C$DW$21, DW_AT_decl_line(0x27)
	.dwattr $C$DW$21, DW_AT_decl_column(0x06)
	.dwendtag $C$DW$21


$C$DW$22	.dwtag  DW_TAG_subprogram
	.dwattr $C$DW$22, DW_AT_name("tc_init")
	.dwattr $C$DW$22, DW_AT_TI_symbol_name("tc_init")
	.dwattr $C$DW$22, DW_AT_declaration
	.dwattr $C$DW$22, DW_AT_external
	.dwattr $C$DW$22, DW_AT_decl_file("..\grbl\tool_change.h")
	.dwattr $C$DW$22, DW_AT_decl_line(0x1b)
	.dwattr $C$DW$22, DW_AT_decl_column(0x06)
	.dwendtag $C$DW$22


$C$DW$23	.dwtag  DW_TAG_subprogram
	.dwattr $C$DW$23, DW_AT_name("plan_sync_position")
	.dwattr $C$DW$23, DW_AT_TI_symbol_name("plan_sync_position")
	.dwattr $C$DW$23, DW_AT_declaration
	.dwattr $C$DW$23, DW_AT_external
	.dwattr $C$DW$23, DW_AT_decl_file("..\grbl\planner.h")
	.dwattr $C$DW$23, DW_AT_decl_line(0x88)
	.dwattr $C$DW$23, DW_AT_decl_column(0x06)
	.dwendtag $C$DW$23


$C$DW$24	.dwtag  DW_TAG_subprogram
	.dwattr $C$DW$24, DW_AT_name("system_convert_array_steps_to_mpos")
	.dwattr $C$DW$24, DW_AT_TI_symbol_name("system_convert_array_steps_to_mpos")
	.dwattr $C$DW$24, DW_AT_declaration
	.dwattr $C$DW$24, DW_AT_external
	.dwattr $C$DW$24, DW_AT_decl_file("..\grbl\system.h")
	.dwattr $C$DW$24, DW_AT_decl_line(0x129)
	.dwattr $C$DW$24, DW_AT_decl_column(0x06)
$C$DW$25	.dwtag  DW_TAG_formal_parameter
	.dwattr $C$DW$25, DW_AT_type(*$C$DW$T$243)

$C$DW$26	.dwtag  DW_TAG_formal_parameter
	.dwattr $C$DW$26, DW_AT_type(*$C$DW$T$860)

	.dwendtag $C$DW$24


$C$DW$27	.dwtag  DW_TAG_subprogram
	.dwattr $C$DW$27, DW_AT_name("ftoa")
	.dwattr $C$DW$27, DW_AT_TI_symbol_name("ftoa")
	.dwattr $C$DW$27, DW_AT_type(*$C$DW$T$167)
	.dwattr $C$DW$27, DW_AT_declaration
	.dwattr $C$DW$27, DW_AT_external
	.dwattr $C$DW$27, DW_AT_decl_file("..\grbl\nuts_bolts.h")
	.dwattr $C$DW$27, DW_AT_decl_line(0xba)
	.dwattr $C$DW$27, DW_AT_decl_column(0x07)
$C$DW$28	.dwtag  DW_TAG_formal_parameter
	.dwattr $C$DW$28, DW_AT_type(*$C$DW$T$16)

$C$DW$29	.dwtag  DW_TAG_formal_parameter
	.dwattr $C$DW$29, DW_AT_type(*$C$DW$T$36)

	.dwendtag $C$DW$27


$C$DW$30	.dwtag  DW_TAG_subprogram
	.dwattr $C$DW$30, DW_AT_name("uitoa")
	.dwattr $C$DW$30, DW_AT_TI_symbol_name("uitoa")
	.dwattr $C$DW$30, DW_AT_type(*$C$DW$T$167)
	.dwattr $C$DW$30, DW_AT_declaration
	.dwattr $C$DW$30, DW_AT_external
	.dwattr $C$DW$30, DW_AT_decl_file("..\grbl\nuts_bolts.h")
	.dwattr $C$DW$30, DW_AT_decl_line(0xb7)
	.dwattr $C$DW$30, DW_AT_decl_column(0x07)
$C$DW$31	.dwtag  DW_TAG_formal_parameter
	.dwattr $C$DW$31, DW_AT_type(*$C$DW$T$74)

	.dwendtag $C$DW$30


$C$DW$32	.dwtag  DW_TAG_subprogram
	.dwattr $C$DW$32, DW_AT_name("nvs_buffer_sync_physical")
	.dwattr $C$DW$32, DW_AT_TI_symbol_name("nvs_buffer_sync_physical")
	.dwattr $C$DW$32, DW_AT_declaration
	.dwattr $C$DW$32, DW_AT_external
	.dwattr $C$DW$32, DW_AT_decl_file("..\grbl\nvs_buffer.h")
	.dwattr $C$DW$32, DW_AT_decl_line(0x33)
	.dwattr $C$DW$32, DW_AT_decl_column(0x06)
	.dwendtag $C$DW$32


$C$DW$33	.dwtag  DW_TAG_subprogram
	.dwattr $C$DW$33, DW_AT_name("read_float")
	.dwattr $C$DW$33, DW_AT_TI_symbol_name("read_float")
	.dwattr $C$DW$33, DW_AT_type(*$C$DW$T$105)
	.dwattr $C$DW$33, DW_AT_declaration
	.dwattr $C$DW$33, DW_AT_external
	.dwattr $C$DW$33, DW_AT_decl_file("..\grbl\nuts_bolts.h")
	.dwattr $C$DW$33, DW_AT_decl_line(0xc2)
	.dwattr $C$DW$33, DW_AT_decl_column(0x06)
$C$DW$34	.dwtag  DW_TAG_formal_parameter
	.dwattr $C$DW$34, DW_AT_type(*$C$DW$T$167)

$C$DW$35	.dwtag  DW_TAG_formal_parameter
	.dwattr $C$DW$35, DW_AT_type(*$C$DW$T$776)

$C$DW$36	.dwtag  DW_TAG_formal_parameter
	.dwattr $C$DW$36, DW_AT_type(*$C$DW$T$243)

	.dwendtag $C$DW$33


$C$DW$37	.dwtag  DW_TAG_subprogram
	.dwattr $C$DW$37, DW_AT_name("isintf")
	.dwattr $C$DW$37, DW_AT_TI_symbol_name("isintf")
	.dwattr $C$DW$37, DW_AT_type(*$C$DW$T$105)
	.dwattr $C$DW$37, DW_AT_declaration
	.dwattr $C$DW$37, DW_AT_external
	.dwattr $C$DW$37, DW_AT_decl_file("..\grbl\nuts_bolts.h")
	.dwattr $C$DW$37, DW_AT_decl_line(0xbd)
	.dwattr $C$DW$37, DW_AT_decl_column(0x06)
$C$DW$38	.dwtag  DW_TAG_formal_parameter
	.dwattr $C$DW$38, DW_AT_type(*$C$DW$T$16)

	.dwendtag $C$DW$37


$C$DW$39	.dwtag  DW_TAG_subprogram
	.dwattr $C$DW$39, DW_AT_name("truncf")
	.dwattr $C$DW$39, DW_AT_TI_symbol_name("truncf")
	.dwattr $C$DW$39, DW_AT_type(*$C$DW$T$16)
	.dwattr $C$DW$39, DW_AT_declaration
	.dwattr $C$DW$39, DW_AT_external
	.dwattr $C$DW$39, DW_AT_decl_file("C:/ti/ccs1230/ccs/tools/compiler/ti-cgt-msp430_21.6.1.LTS/include/math.h")
	.dwattr $C$DW$39, DW_AT_decl_line(0x1ee)
	.dwattr $C$DW$39, DW_AT_decl_column(0x1a)
$C$DW$40	.dwtag  DW_TAG_formal_parameter
	.dwattr $C$DW$40, DW_AT_type(*$C$DW$T$16)

	.dwendtag $C$DW$39


$C$DW$41	.dwtag  DW_TAG_subprogram
	.dwattr $C$DW$41, DW_AT_name("report_grbl_settings")
	.dwattr $C$DW$41, DW_AT_TI_symbol_name("report_grbl_settings")
	.dwattr $C$DW$41, DW_AT_declaration
	.dwattr $C$DW$41, DW_AT_external
	.dwattr $C$DW$41, DW_AT_decl_file("..\grbl\report.h")
	.dwattr $C$DW$41, DW_AT_decl_line(0x43)
	.dwattr $C$DW$41, DW_AT_decl_column(0x06)
$C$DW$42	.dwtag  DW_TAG_formal_parameter
	.dwattr $C$DW$42, DW_AT_type(*$C$DW$T$105)

$C$DW$43	.dwtag  DW_TAG_formal_parameter
	.dwattr $C$DW$43, DW_AT_type(*$C$DW$T$3)

	.dwendtag $C$DW$41

	.sect	".const:$P$T28$1"
	.align	1
	.elfsym	$P$T28$1,SYM_SIZE(1)
$P$T28$1:
	.bits		0x1,1
			; $P$T28$1.$P$T2.on @ 0
	.bits		0,1
			; $P$T28$1.$P$T2.ccw @ 1
	.bits		0,1
			; $P$T28$1.$P$T2.pwm @ 2
	.bits		0,5


$C$DW$44	.dwtag  DW_TAG_variable
	.dwattr $C$DW$44, DW_AT_name("$P$T28$1")
	.dwattr $C$DW$44, DW_AT_TI_symbol_name("$P$T28$1")
	.dwattr $C$DW$44, DW_AT_type(*$C$DW$T$841)
	.dwattr $C$DW$44, DW_AT_location[DW_OP_addr $P$T28$1]
	.dwattr $C$DW$44, DW_AT_decl_file("../grbl/settings.c")
	.dwattr $C$DW$44, DW_AT_decl_line(0x89d)
	.dwattr $C$DW$44, DW_AT_decl_column(0x15)

;	C:\ti\ccs1230\ccs\tools\compiler\ti-cgt-msp430_21.6.1.LTS\bin\opt430.exe C:\\Users\\aleta\\AppData\\Local\\Temp\\{D95D7CA2-D60A-4B16-B84B-82F8397964FC} C:\\Users\\aleta\\AppData\\Local\\Temp\\{94B9CA56-EAE4-4D6F-99C8-C6E8D64D01D0} 
	.sect	".text:settings_write_tool_data"
	.clink
	.global	settings_write_tool_data

$C$DW$45	.dwtag  DW_TAG_subprogram
	.dwattr $C$DW$45, DW_AT_name("settings_write_tool_data")
	.dwattr $C$DW$45, DW_AT_low_pc(settings_write_tool_data)
	.dwattr $C$DW$45, DW_AT_high_pc(0x00)
	.dwattr $C$DW$45, DW_AT_TI_symbol_name("settings_write_tool_data")
	.dwattr $C$DW$45, DW_AT_external
	.dwattr $C$DW$45, DW_AT_type(*$C$DW$T$105)
	.dwattr $C$DW$45, DW_AT_TI_begin_file("../grbl/settings.c")
	.dwattr $C$DW$45, DW_AT_TI_begin_line(0x607)
	.dwattr $C$DW$45, DW_AT_TI_begin_column(0x06)
	.dwattr $C$DW$45, DW_AT_decl_file("../grbl/settings.c")
	.dwattr $C$DW$45, DW_AT_decl_line(0x607)
	.dwattr $C$DW$45, DW_AT_decl_column(0x06)
	.dwattr $C$DW$45, DW_AT_TI_max_frame_size(0x04)
	.dwpsn	file "../grbl/settings.c",line 1544,column 1,is_stmt,address settings_write_tool_data,isa 0

	.dwfde $C$DW$CIE, settings_write_tool_data
$C$DW$46	.dwtag  DW_TAG_formal_parameter
	.dwattr $C$DW$46, DW_AT_name("tool_data")
	.dwattr $C$DW$46, DW_AT_TI_symbol_name("tool_data")
	.dwattr $C$DW$46, DW_AT_type(*$C$DW$T$134)
	.dwattr $C$DW$46, DW_AT_location[DW_OP_reg12]


;*****************************************************************************
;* FUNCTION NAME: settings_write_tool_data                                   *
;*                                                                           *
;*   Regs Modified     : SP,r12                                              *
;*   Regs Used         : SP,r12                                              *
;*   Local Frame Size  : 0 Args + 0 Auto + 0 Save = 0 byte                   *
;*****************************************************************************
settings_write_tool_data:
;* --------------------------------------------------------------------------*
	.dwcfi	cfa_offset, 4
	.dwcfi	save_reg_to_mem, 16, -4
	.dwpsn	file "../grbl/settings.c",line 1553,column 5,is_stmt,isa 0
        MOV.B     #0,r12                ; [] |1553| 
	.dwpsn	file "../grbl/settings.c",line 1555,column 1,is_stmt,isa 0
$C$DW$47	.dwtag  DW_TAG_TI_branch
	.dwattr $C$DW$47, DW_AT_low_pc(0x00)
	.dwattr $C$DW$47, DW_AT_TI_return

        RETA      ; [] 
        ; [] 
	.dwattr $C$DW$45, DW_AT_TI_end_file("../grbl/settings.c")
	.dwattr $C$DW$45, DW_AT_TI_end_line(0x613)
	.dwattr $C$DW$45, DW_AT_TI_end_column(0x01)
	.dwendentry
	.dwendtag $C$DW$45

	.sect	".text:restore_override_backup"
	.clink

$C$DW$48	.dwtag  DW_TAG_subprogram
	.dwattr $C$DW$48, DW_AT_name("restore_override_backup")
	.dwattr $C$DW$48, DW_AT_low_pc(restore_override_backup)
	.dwattr $C$DW$48, DW_AT_high_pc(0x00)
	.dwattr $C$DW$48, DW_AT_TI_symbol_name("restore_override_backup")
	.dwattr $C$DW$48, DW_AT_TI_begin_file("../grbl/settings.c")
	.dwattr $C$DW$48, DW_AT_TI_begin_line(0x2b2)
	.dwattr $C$DW$48, DW_AT_TI_begin_column(0x0d)
	.dwattr $C$DW$48, DW_AT_decl_file("../grbl/settings.c")
	.dwattr $C$DW$48, DW_AT_decl_line(0x2b2)
	.dwattr $C$DW$48, DW_AT_decl_column(0x0d)
	.dwattr $C$DW$48, DW_AT_TI_max_frame_size(0x04)
	.dwpsn	file "../grbl/settings.c",line 691,column 1,is_stmt,address restore_override_backup,isa 0

	.dwfde $C$DW$CIE, restore_override_backup

;*****************************************************************************
;* FUNCTION NAME: restore_override_backup                                    *
;*                                                                           *
;*   Regs Modified     : SP,SR,r13,r14,r15                                   *
;*   Regs Used         : SP,SR,r13,r14,r15                                   *
;*   Local Frame Size  : 0 Args + 0 Auto + 0 Save = 0 byte                   *
;*****************************************************************************
restore_override_backup:
;* --------------------------------------------------------------------------*
	.dwcfi	cfa_offset, 4
	.dwcfi	save_reg_to_mem, 16, -4
;* r13   assigned to idx
$C$DW$49	.dwtag  DW_TAG_variable
	.dwattr $C$DW$49, DW_AT_name("idx")
	.dwattr $C$DW$49, DW_AT_TI_symbol_name("idx")
	.dwattr $C$DW$49, DW_AT_type(*$C$DW$T$122)
	.dwattr $C$DW$49, DW_AT_location[DW_OP_reg13]

	.dwpsn	file "../grbl/settings.c",line 692,column 22,is_stmt,isa 0
        MOV.W     #3,r13                ; [] |692| 
	.dwpsn	file "../grbl/settings.c",line 694,column 5,is_stmt,isa 0
        TST.B     &override_backup+0    ; [] |694| 
        JEQ       $C$L2                 ; [] |694| 
                                          ; [] |694| 
;* --------------------------------------------------------------------------*
;*   BEGIN LOOP $C$L1
;*
;*   Loop source line                : 694
;*   Loop closing brace source line  : 697
;*   Known Minimum Trip Count        : 1
;*   Known Maximum Trip Count        : 4294967295
;*   Known Max Trip Count Factor     : 1
;* --------------------------------------------------------------------------*
$C$L1:    
	.dwpsn	file "../grbl/settings.c",line 695,column 9,is_stmt,isa 0
        SUB.W     #1,r13                ; [] |695| 
	.dwpsn	file "../grbl/settings.c",line 696,column 9,is_stmt,isa 0
        MOVA      r13,r15               ; [] |696| 
        RLAM.W    #4,r15                ; [] |696| 
        MOVA      r13,r14               ; [] |696| 
        RLAM.W    #2,r14                ; [] |696| 
        ADD.W     r15,r14               ; [] |696| 
        MOVA      r13,r15               ; [] |696| 
        RLAM.W    #2,r15                ; [] |696| 
        MOV.W     override_backup+2(r15),settings+44(r14) ; [] |696| 
        MOV.W     override_backup+4(r15),settings+46(r14) ; [] |696| 
	.dwpsn	file "../grbl/settings.c",line 697,column 5,is_stmt,isa 0
        TST.W     r13                   ; [] |697| 
        JNE       $C$L1                 ; [] |697| 
                                          ; [] |697| 
;* --------------------------------------------------------------------------*
$C$L2:    
	.dwpsn	file "../grbl/settings.c",line 698,column 1,is_stmt,isa 0
$C$DW$50	.dwtag  DW_TAG_TI_branch
	.dwattr $C$DW$50, DW_AT_low_pc(0x00)
	.dwattr $C$DW$50, DW_AT_TI_return

        RETA      ; [] 
        ; [] 
	.dwattr $C$DW$48, DW_AT_TI_end_file("../grbl/settings.c")
	.dwattr $C$DW$48, DW_AT_TI_end_line(0x2ba)
	.dwattr $C$DW$48, DW_AT_TI_end_column(0x01)
	.dwendentry
	.dwendtag $C$DW$48

	.sect	".text:set_g92_disable_persistence"
	.clink

$C$DW$51	.dwtag  DW_TAG_subprogram
	.dwattr $C$DW$51, DW_AT_name("set_g92_disable_persistence")
	.dwattr $C$DW$51, DW_AT_low_pc(set_g92_disable_persistence)
	.dwattr $C$DW$51, DW_AT_high_pc(0x00)
	.dwattr $C$DW$51, DW_AT_TI_symbol_name("set_g92_disable_persistence")
	.dwattr $C$DW$51, DW_AT_type(*$C$DW$T$132)
	.dwattr $C$DW$51, DW_AT_TI_begin_file("../grbl/settings.c")
	.dwattr $C$DW$51, DW_AT_TI_begin_line(0x3b9)
	.dwattr $C$DW$51, DW_AT_TI_begin_column(0x16)
	.dwattr $C$DW$51, DW_AT_decl_file("../grbl/settings.c")
	.dwattr $C$DW$51, DW_AT_decl_line(0x3b9)
	.dwattr $C$DW$51, DW_AT_decl_column(0x16)
	.dwattr $C$DW$51, DW_AT_TI_max_frame_size(0x04)
	.dwpsn	file "../grbl/settings.c",line 954,column 1,is_stmt,address set_g92_disable_persistence,isa 0

	.dwfde $C$DW$CIE, set_g92_disable_persistence
$C$DW$52	.dwtag  DW_TAG_formal_parameter
	.dwattr $C$DW$52, DW_AT_name("id")
	.dwattr $C$DW$52, DW_AT_TI_symbol_name("id")
	.dwattr $C$DW$52, DW_AT_type(*$C$DW$T$630)
	.dwattr $C$DW$52, DW_AT_location[DW_OP_reg12]

$C$DW$53	.dwtag  DW_TAG_formal_parameter
	.dwattr $C$DW$53, DW_AT_name("int_value")
	.dwattr $C$DW$53, DW_AT_TI_symbol_name("int_value")
	.dwattr $C$DW$53, DW_AT_type(*$C$DW$T$149)
	.dwattr $C$DW$53, DW_AT_location[DW_OP_reg13]


;*****************************************************************************
;* FUNCTION NAME: set_g92_disable_persistence                                *
;*                                                                           *
;*   Regs Modified     : SP,SR,r12,r14,r15                                   *
;*   Regs Used         : SP,SR,r12,r13,r14,r15                               *
;*   Local Frame Size  : 0 Args + 0 Auto + 0 Save = 0 byte                   *
;*****************************************************************************
set_g92_disable_persistence:
;* --------------------------------------------------------------------------*
	.dwcfi	cfa_offset, 4
	.dwcfi	save_reg_to_mem, 16, -4
;* r13   assigned to int_value
$C$DW$54	.dwtag  DW_TAG_variable
	.dwattr $C$DW$54, DW_AT_name("int_value")
	.dwattr $C$DW$54, DW_AT_TI_symbol_name("int_value")
	.dwattr $C$DW$54, DW_AT_type(*$C$DW$T$149)
	.dwattr $C$DW$54, DW_AT_location[DW_OP_reg13]

	.dwpsn	file "../grbl/settings.c",line 955,column 5,is_stmt,isa 0
        MOV.W     #0,r14                ; [] |955| 
        TST.W     r13                   ; [] |955| 
        JEQ       $C$L3                 ; [] |955| 
                                          ; [] |955| 
;* --------------------------------------------------------------------------*
        MOV.W     #1,r14                ; [] |955| 
;* --------------------------------------------------------------------------*
$C$L3:    
        MOVA      r14,r15               ; [] |955| 
        MOV.B     &settings+237,r14     ; [] |955| 
        BIC.B     #2,r14                ; [] |955| 
        AND.B     #1,r15                ; [] |955| 
        RLA.B     r15                   ; [] |955| 
        OR.B      r15,r14               ; [] |955| 
        MOV.B     r14,&settings+237     ; [] |955| 
	.dwpsn	file "../grbl/settings.c",line 957,column 5,is_stmt,isa 0
        MOV.W     #0,r12                ; [] |957| 
	.dwpsn	file "../grbl/settings.c",line 958,column 1,is_stmt,isa 0
$C$DW$55	.dwtag  DW_TAG_TI_branch
	.dwattr $C$DW$55, DW_AT_low_pc(0x00)
	.dwattr $C$DW$55, DW_AT_TI_return

        RETA      ; [] 
        ; [] 
	.dwattr $C$DW$51, DW_AT_TI_end_file("../grbl/settings.c")
	.dwattr $C$DW$51, DW_AT_TI_end_line(0x3be)
	.dwattr $C$DW$51, DW_AT_TI_end_column(0x01)
	.dwendentry
	.dwendtag $C$DW$51

	.sect	".text:set_tool_change_probing_distance"
	.clink

$C$DW$56	.dwtag  DW_TAG_subprogram
	.dwattr $C$DW$56, DW_AT_name("set_tool_change_probing_distance")
	.dwattr $C$DW$56, DW_AT_low_pc(set_tool_change_probing_distance)
	.dwattr $C$DW$56, DW_AT_high_pc(0x00)
	.dwattr $C$DW$56, DW_AT_TI_symbol_name("set_tool_change_probing_distance")
	.dwattr $C$DW$56, DW_AT_type(*$C$DW$T$132)
	.dwattr $C$DW$56, DW_AT_TI_begin_file("../grbl/settings.c")
	.dwattr $C$DW$56, DW_AT_TI_begin_line(0x3de)
	.dwattr $C$DW$56, DW_AT_TI_begin_column(0x16)
	.dwattr $C$DW$56, DW_AT_decl_file("../grbl/settings.c")
	.dwattr $C$DW$56, DW_AT_decl_line(0x3de)
	.dwattr $C$DW$56, DW_AT_decl_column(0x16)
	.dwattr $C$DW$56, DW_AT_TI_max_frame_size(0x04)
	.dwpsn	file "../grbl/settings.c",line 991,column 1,is_stmt,address set_tool_change_probing_distance,isa 0

	.dwfde $C$DW$CIE, set_tool_change_probing_distance
$C$DW$57	.dwtag  DW_TAG_formal_parameter
	.dwattr $C$DW$57, DW_AT_name("id")
	.dwattr $C$DW$57, DW_AT_TI_symbol_name("id")
	.dwattr $C$DW$57, DW_AT_type(*$C$DW$T$630)
	.dwattr $C$DW$57, DW_AT_location[DW_OP_reg12]

$C$DW$58	.dwtag  DW_TAG_formal_parameter
	.dwattr $C$DW$58, DW_AT_name("value")
	.dwattr $C$DW$58, DW_AT_TI_symbol_name("value")
	.dwattr $C$DW$58, DW_AT_type(*$C$DW$T$16)
	.dwattr $C$DW$58, DW_AT_location[DW_OP_reg13 DW_OP_piece 2 DW_OP_reg14 DW_OP_piece 2]


;*****************************************************************************
;* FUNCTION NAME: set_tool_change_probing_distance                           *
;*                                                                           *
;*   Regs Modified     : SP,SR,r12,r15                                       *
;*   Regs Used         : SP,SR,r12,r13,r14,r15                               *
;*   Local Frame Size  : 0 Args + 0 Auto + 0 Save = 0 byte                   *
;*****************************************************************************
set_tool_change_probing_distance:
;* --------------------------------------------------------------------------*
	.dwcfi	cfa_offset, 4
	.dwcfi	save_reg_to_mem, 16, -4
;* r13   assigned to value
$C$DW$59	.dwtag  DW_TAG_variable
	.dwattr $C$DW$59, DW_AT_name("value")
	.dwattr $C$DW$59, DW_AT_TI_symbol_name("value")
	.dwattr $C$DW$59, DW_AT_type(*$C$DW$T$16)
	.dwattr $C$DW$59, DW_AT_location[DW_OP_reg13 DW_OP_piece 2 DW_OP_reg14 DW_OP_piece 2]

	.dwpsn	file "../grbl/settings.c",line 992,column 5,is_stmt,isa 0
        MOV.B     &hal+400,r15          ; [] |992| 
        RPT #5 || RRUX.W r15 ; [] |992| 
        AND.W     #1,r15                ; [] |992| 
        TST.W     r15                   ; [] |992| 
        JEQ       $C$L4                 ; [] |992| 
                                          ; [] |992| 
;* --------------------------------------------------------------------------*
	.dwpsn	file "../grbl/settings.c",line 993,column 9,is_stmt,isa 0
        MOV.W     #3,r12                ; [] |993| 
        JMP       $C$L5                 ; [] |993| 
                                          ; [] |993| 
;* --------------------------------------------------------------------------*
$C$L4:    
	.dwpsn	file "../grbl/settings.c",line 995,column 5,is_stmt,isa 0
        MOV.W     r13,&settings+30      ; [] |995| 
        MOV.W     r14,&settings+32      ; [] |995| 
	.dwpsn	file "../grbl/settings.c",line 997,column 5,is_stmt,isa 0
        MOV.W     #0,r12                ; [] |997| 
;* --------------------------------------------------------------------------*
$C$L5:    
	.dwpsn	file "../grbl/settings.c",line 998,column 1,is_stmt,isa 0
$C$DW$60	.dwtag  DW_TAG_TI_branch
	.dwattr $C$DW$60, DW_AT_low_pc(0x00)
	.dwattr $C$DW$60, DW_AT_TI_return

        RETA      ; [] 
        ; [] 
	.dwattr $C$DW$56, DW_AT_TI_end_file("../grbl/settings.c")
	.dwattr $C$DW$56, DW_AT_TI_end_line(0x3e6)
	.dwattr $C$DW$56, DW_AT_TI_end_column(0x01)
	.dwendentry
	.dwendtag $C$DW$56

	.sect	".text:set_tool_change_mode"
	.clink

$C$DW$61	.dwtag  DW_TAG_subprogram
	.dwattr $C$DW$61, DW_AT_name("set_tool_change_mode")
	.dwattr $C$DW$61, DW_AT_low_pc(set_tool_change_mode)
	.dwattr $C$DW$61, DW_AT_high_pc(0x00)
	.dwattr $C$DW$61, DW_AT_TI_symbol_name("set_tool_change_mode")
	.dwattr $C$DW$61, DW_AT_type(*$C$DW$T$132)
	.dwattr $C$DW$61, DW_AT_TI_begin_file("../grbl/settings.c")
	.dwattr $C$DW$61, DW_AT_TI_begin_line(0x3cf)
	.dwattr $C$DW$61, DW_AT_TI_begin_column(0x16)
	.dwattr $C$DW$61, DW_AT_decl_file("../grbl/settings.c")
	.dwattr $C$DW$61, DW_AT_decl_line(0x3cf)
	.dwattr $C$DW$61, DW_AT_decl_column(0x16)
	.dwattr $C$DW$61, DW_AT_TI_max_frame_size(0x04)
	.dwpsn	file "../grbl/settings.c",line 976,column 1,is_stmt,address set_tool_change_mode,isa 0

	.dwfde $C$DW$CIE, set_tool_change_mode
$C$DW$62	.dwtag  DW_TAG_formal_parameter
	.dwattr $C$DW$62, DW_AT_name("id")
	.dwattr $C$DW$62, DW_AT_TI_symbol_name("id")
	.dwattr $C$DW$62, DW_AT_type(*$C$DW$T$630)
	.dwattr $C$DW$62, DW_AT_location[DW_OP_reg12]

$C$DW$63	.dwtag  DW_TAG_formal_parameter
	.dwattr $C$DW$63, DW_AT_name("int_value")
	.dwattr $C$DW$63, DW_AT_TI_symbol_name("int_value")
	.dwattr $C$DW$63, DW_AT_type(*$C$DW$T$149)
	.dwattr $C$DW$63, DW_AT_location[DW_OP_reg13]


;*****************************************************************************
;* FUNCTION NAME: set_tool_change_mode                                       *
;*                                                                           *
;*   Regs Modified     : SP,SR,r11,r12,r13,r14,r15                           *
;*   Regs Used         : SP,SR,r11,r12,r13,r14,r15                           *
;*   Local Frame Size  : 0 Args + 0 Auto + 0 Save = 0 byte                   *
;*****************************************************************************
set_tool_change_mode:
;* --------------------------------------------------------------------------*
	.dwcfi	cfa_offset, 4
	.dwcfi	save_reg_to_mem, 16, -4
;* r13   assigned to int_value
$C$DW$64	.dwtag  DW_TAG_variable
	.dwattr $C$DW$64, DW_AT_name("int_value")
	.dwattr $C$DW$64, DW_AT_TI_symbol_name("int_value")
	.dwattr $C$DW$64, DW_AT_type(*$C$DW$T$149)
	.dwattr $C$DW$64, DW_AT_location[DW_OP_reg13]

	.dwpsn	file "../grbl/settings.c",line 977,column 5,is_stmt,isa 0
        MOV.B     &hal+400,r15          ; [] |977| 
        RPT #5 || RRUX.W r15 ; [] |977| 
        AND.W     #1,r15                ; [] |977| 
        TST.W     r15                   ; [] |977| 
        JNE       $C$L6                 ; [] |977| 
                                          ; [] |977| 
;* --------------------------------------------------------------------------*
        TSTX.A    &hal+206              ; [] |977| 
        JEQ       $C$L6                 ; [] |977| 
                                          ; [] |977| 
;* --------------------------------------------------------------------------*
        CMP.W     #5,r13                ; [] |977| 
        JLO       $C$L7                 ; [] |977| 
                                          ; [] |977| 
;* --------------------------------------------------------------------------*
$C$L6:    
	.dwpsn	file "../grbl/settings.c",line 985,column 9,is_stmt,isa 0
        MOV.W     #3,r12                ; [] |985| 
        JMP       $C$L8                 ; [] |985| 
                                          ; [] |985| 
;* --------------------------------------------------------------------------*
$C$L7:    
	.dwpsn	file "../grbl/settings.c",line 982,column 9,is_stmt,isa 0
        MOV.W     r13,&settings+34      ; [] |982| 
	.dwpsn	file "../grbl/settings.c",line 983,column 9,is_stmt,isa 0
$C$DW$65	.dwtag  DW_TAG_TI_branch
	.dwattr $C$DW$65, DW_AT_low_pc(0x00)
	.dwattr $C$DW$65, DW_AT_name("tc_init")
	.dwattr $C$DW$65, DW_AT_TI_call

        CALLA     #tc_init              ; [] |983| 
                                          ; [] |983| 
	.dwpsn	file "../grbl/settings.c",line 987,column 5,is_stmt,isa 0
        MOV.W     #0,r12                ; [] |987| 
;* --------------------------------------------------------------------------*
$C$L8:    
	.dwpsn	file "../grbl/settings.c",line 988,column 1,is_stmt,isa 0
$C$DW$66	.dwtag  DW_TAG_TI_branch
	.dwattr $C$DW$66, DW_AT_low_pc(0x00)
	.dwattr $C$DW$66, DW_AT_TI_return

        RETA      ; [] 
        ; [] 
	.dwattr $C$DW$61, DW_AT_TI_end_file("../grbl/settings.c")
	.dwattr $C$DW$61, DW_AT_TI_end_line(0x3dc)
	.dwattr $C$DW$61, DW_AT_TI_end_column(0x01)
	.dwendentry
	.dwendtag $C$DW$61

	.sect	".text:settings_get_axis_base"
	.clink
	.global	settings_get_axis_base

$C$DW$67	.dwtag  DW_TAG_subprogram
	.dwattr $C$DW$67, DW_AT_name("settings_get_axis_base")
	.dwattr $C$DW$67, DW_AT_low_pc(settings_get_axis_base)
	.dwattr $C$DW$67, DW_AT_high_pc(0x00)
	.dwattr $C$DW$67, DW_AT_TI_symbol_name("settings_get_axis_base")
	.dwattr $C$DW$67, DW_AT_external
	.dwattr $C$DW$67, DW_AT_type(*$C$DW$T$630)
	.dwattr $C$DW$67, DW_AT_TI_begin_file("../grbl/settings.c")
	.dwattr $C$DW$67, DW_AT_TI_begin_line(0x423)
	.dwattr $C$DW$67, DW_AT_TI_begin_column(0x0e)
	.dwattr $C$DW$67, DW_AT_decl_file("../grbl/settings.c")
	.dwattr $C$DW$67, DW_AT_decl_line(0x423)
	.dwattr $C$DW$67, DW_AT_decl_column(0x0e)
	.dwattr $C$DW$67, DW_AT_TI_max_frame_size(0x10)
	.dwpsn	file "../grbl/settings.c",line 1060,column 1,is_stmt,address settings_get_axis_base,isa 0

	.dwfde $C$DW$CIE, settings_get_axis_base
$C$DW$68	.dwtag  DW_TAG_formal_parameter
	.dwattr $C$DW$68, DW_AT_name("id")
	.dwattr $C$DW$68, DW_AT_TI_symbol_name("id")
	.dwattr $C$DW$68, DW_AT_type(*$C$DW$T$630)
	.dwattr $C$DW$68, DW_AT_location[DW_OP_reg12]

$C$DW$69	.dwtag  DW_TAG_formal_parameter
	.dwattr $C$DW$69, DW_AT_name("idx")
	.dwattr $C$DW$69, DW_AT_TI_symbol_name("idx")
	.dwattr $C$DW$69, DW_AT_type(*$C$DW$T$776)
	.dwattr $C$DW$69, DW_AT_location[DW_OP_reg13]


;*****************************************************************************
;* FUNCTION NAME: settings_get_axis_base                                     *
;*                                                                           *
;*   Regs Modified     : SP,SR,r8,r9,r10,r11,r12,r13,r14,r15                 *
;*   Regs Used         : SP,SR,r8,r9,r10,r11,r12,r13,r14,r15                 *
;*   Local Frame Size  : 0 Args + 0 Auto + 12 Save = 12 byte                 *
;*****************************************************************************
settings_get_axis_base:
;* --------------------------------------------------------------------------*
	.dwcfi	cfa_offset, 4
	.dwcfi	save_reg_to_mem, 16, -4
        PUSHM.A   #3,r10                ; [] 
	.dwcfi	save_reg_to_mem, 10, -8
	.dwcfi	save_reg_to_mem, 9, -12
	.dwcfi	save_reg_to_mem, 8, -16
	.dwcfi	cfa_offset, 16
;* r9    assigned to id
$C$DW$70	.dwtag  DW_TAG_variable
	.dwattr $C$DW$70, DW_AT_name("id")
	.dwattr $C$DW$70, DW_AT_TI_symbol_name("id")
	.dwattr $C$DW$70, DW_AT_type(*$C$DW$T$630)
	.dwattr $C$DW$70, DW_AT_location[DW_OP_reg9]

;* r8    assigned to idx
$C$DW$71	.dwtag  DW_TAG_variable
	.dwattr $C$DW$71, DW_AT_name("idx")
	.dwattr $C$DW$71, DW_AT_TI_symbol_name("idx")
	.dwattr $C$DW$71, DW_AT_type(*$C$DW$T$776)
	.dwattr $C$DW$71, DW_AT_location[DW_OP_reg8]

;* r12   assigned to base
$C$DW$72	.dwtag  DW_TAG_variable
	.dwattr $C$DW$72, DW_AT_name("base")
	.dwattr $C$DW$72, DW_AT_TI_symbol_name("base")
	.dwattr $C$DW$72, DW_AT_type(*$C$DW$T$630)
	.dwattr $C$DW$72, DW_AT_location[DW_OP_reg12]

;* r10   assigned to id
$C$DW$73	.dwtag  DW_TAG_variable
	.dwattr $C$DW$73, DW_AT_name("id")
	.dwattr $C$DW$73, DW_AT_TI_symbol_name("id")
	.dwattr $C$DW$73, DW_AT_type(*$C$DW$T$630)
	.dwattr $C$DW$73, DW_AT_location[DW_OP_reg10]

        MOVA      r13,r8                ; [] |1060| 
        MOVA      r12,r9                ; [] |1060| 
	.dwpsn	file "../grbl/settings.c",line 1049,column 1,is_stmt,isa 0
        MOVA      r9,r10                ; [] |1049| 
        CMP.W     #101,r10              ; [] |1049| 
        JLO       $C$L9                 ; [] |1049| 
                                          ; [] |1049| 
;* --------------------------------------------------------------------------*
        CMP.W     #174,r10              ; [] |1049| 
        JLO       $C$L11                ; [] |1049| 
                                          ; [] |1049| 
;* --------------------------------------------------------------------------*
$C$L9:    
        CMP.W     #201,r10              ; [] |1049| 
        JLO       $C$L10                ; [] |1049| 
                                          ; [] |1049| 
;* --------------------------------------------------------------------------*
        CMP.W     #294,r10              ; [] |1049| 
        JLO       $C$L11                ; [] |1049| 
                                          ; [] |1049| 
;* --------------------------------------------------------------------------*
$C$L10:    
	.dwpsn	file "../grbl/settings.c",line 1053,column 10,is_stmt,isa 0
        CMP.W     #401,r10              ; [] |1053| 
        JLO       $C$L12                ; [] |1053| 
                                          ; [] |1053| 
;* --------------------------------------------------------------------------*
        CMP.W     #450,r10              ; [] |1053| 
        JHS       $C$L12                ; [] |1053| 
                                          ; [] |1053| 
;* --------------------------------------------------------------------------*
	.dwpsn	file "../grbl/settings.c",line 1054,column 9,is_stmt,isa 0
        MOV.W     #10,r13               ; [] |1054| 
$C$DW$74	.dwtag  DW_TAG_TI_branch
	.dwattr $C$DW$74, DW_AT_low_pc(0x00)
	.dwattr $C$DW$74, DW_AT_name("__mspabi_remu")
	.dwattr $C$DW$74, DW_AT_TI_call

        CALLA     #__mspabi_remu        ; [] |1054| 
                                          ; [] |1054| 
        MOV.W     #400,r10              ; [] |1054| 
        ADD.W     r14,r10               ; [] |1054| 
        JMP       $C$L12                ; [] |1054| 
                                          ; [] |1054| 
;* --------------------------------------------------------------------------*
$C$L11:    
	.dwpsn	file "../grbl/settings.c",line 1052,column 9,is_stmt,isa 0
        MOV.W     #10,r13               ; [] |1052| 
$C$DW$75	.dwtag  DW_TAG_TI_branch
	.dwattr $C$DW$75, DW_AT_low_pc(0x00)
	.dwattr $C$DW$75, DW_AT_name("__mspabi_remu")
	.dwattr $C$DW$75, DW_AT_TI_call

        CALLA     #__mspabi_remu        ; [] |1052| 
                                          ; [] |1052| 
        SUB.W     r14,r10               ; [] |1052| 
;* --------------------------------------------------------------------------*
$C$L12:    
	.dwpsn	file "../grbl/settings.c",line 1056,column 5,is_stmt,isa 0
        MOVA      r10,r12               ; [] |1056| 
	.dwpsn	file "../grbl/settings.c",line 1062,column 5,is_stmt,isa 0
        SUB.W     r12,r9                ; [] |1062| 
        MOV.W     r9,0(r8)              ; [] |1062| 
	.dwpsn	file "../grbl/settings.c",line 1064,column 5,is_stmt,isa 0
        CMP.W     #3,0(r8)              ; [] |1064| 
        JLO       $C$L13                ; [] |1064| 
                                          ; [] |1064| 
;* --------------------------------------------------------------------------*
        MOV.W     #460,r12              ; [] |1064| 
;* --------------------------------------------------------------------------*
$C$L13:    
	.dwpsn	file "../grbl/settings.c",line 1065,column 1,is_stmt,isa 0
        POPM.A    #3,r10                ; [] 
	.dwcfi	restore_reg, 8
	.dwcfi	restore_reg, 9
	.dwcfi	restore_reg, 10
	.dwcfi	cfa_offset, 4
$C$DW$76	.dwtag  DW_TAG_TI_branch
	.dwattr $C$DW$76, DW_AT_low_pc(0x00)
	.dwattr $C$DW$76, DW_AT_TI_return

        RETA      ; [] 
        ; [] 
	.dwattr $C$DW$67, DW_AT_TI_end_file("../grbl/settings.c")
	.dwattr $C$DW$67, DW_AT_TI_end_line(0x429)
	.dwattr $C$DW$67, DW_AT_TI_end_column(0x01)
	.dwendentry
	.dwendtag $C$DW$67

	.sect	".text:get_float"
	.clink

$C$DW$77	.dwtag  DW_TAG_subprogram
	.dwattr $C$DW$77, DW_AT_name("get_float")
	.dwattr $C$DW$77, DW_AT_low_pc(get_float)
	.dwattr $C$DW$77, DW_AT_high_pc(0x00)
	.dwattr $C$DW$77, DW_AT_TI_symbol_name("get_float")
	.dwattr $C$DW$77, DW_AT_type(*$C$DW$T$16)
	.dwattr $C$DW$77, DW_AT_TI_begin_file("../grbl/settings.c")
	.dwattr $C$DW$77, DW_AT_TI_begin_line(0x46f)
	.dwattr $C$DW$77, DW_AT_TI_begin_column(0x0e)
	.dwattr $C$DW$77, DW_AT_decl_file("../grbl/settings.c")
	.dwattr $C$DW$77, DW_AT_decl_line(0x46f)
	.dwattr $C$DW$77, DW_AT_decl_column(0x0e)
	.dwattr $C$DW$77, DW_AT_TI_max_frame_size(0x0e)
	.dwpsn	file "../grbl/settings.c",line 1136,column 1,is_stmt,address get_float,isa 0

	.dwfde $C$DW$CIE, get_float
$C$DW$78	.dwtag  DW_TAG_formal_parameter
	.dwattr $C$DW$78, DW_AT_name("setting")
	.dwattr $C$DW$78, DW_AT_TI_symbol_name("setting")
	.dwattr $C$DW$78, DW_AT_type(*$C$DW$T$630)
	.dwattr $C$DW$78, DW_AT_location[DW_OP_reg12]


;*****************************************************************************
;* FUNCTION NAME: get_float                                                  *
;*                                                                           *
;*   Regs Modified     : SP,SR,r9,r10,r11,r12,r13,r14,r15                    *
;*   Regs Used         : SP,SR,r9,r10,r11,r12,r13,r14,r15                    *
;*   Local Frame Size  : 0 Args + 2 Auto + 8 Save = 10 byte                  *
;*****************************************************************************
get_float:
;* --------------------------------------------------------------------------*
	.dwcfi	cfa_offset, 4
	.dwcfi	save_reg_to_mem, 16, -4
        PUSHM.A   #2,r10                ; [] 
	.dwcfi	save_reg_to_mem, 10, -8
	.dwcfi	save_reg_to_mem, 9, -12
	.dwcfi	cfa_offset, 12
        SUBA      #2,SP                 ; [] 
	.dwcfi	cfa_offset, 14
$C$DW$79	.dwtag  DW_TAG_variable
	.dwattr $C$DW$79, DW_AT_name("idx")
	.dwattr $C$DW$79, DW_AT_TI_symbol_name("idx")
	.dwattr $C$DW$79, DW_AT_type(*$C$DW$T$122)
	.dwattr $C$DW$79, DW_AT_location[DW_OP_breg1 0]

;* r12   assigned to setting
$C$DW$80	.dwtag  DW_TAG_variable
	.dwattr $C$DW$80, DW_AT_name("setting")
	.dwattr $C$DW$80, DW_AT_TI_symbol_name("setting")
	.dwattr $C$DW$80, DW_AT_type(*$C$DW$T$630)
	.dwattr $C$DW$80, DW_AT_location[DW_OP_reg12]

;* r10   assigned to value
$C$DW$81	.dwtag  DW_TAG_variable
	.dwattr $C$DW$81, DW_AT_name("value")
	.dwattr $C$DW$81, DW_AT_TI_symbol_name("value")
	.dwattr $C$DW$81, DW_AT_type(*$C$DW$T$16)
	.dwattr $C$DW$81, DW_AT_location[DW_OP_reg10 DW_OP_piece 2 DW_OP_reg9 DW_OP_piece 2]

	.dwpsn	file "../grbl/settings.c",line 1137,column 17,is_stmt,isa 0
        MOV.W     #0,r10                ; [] |1137| 
        MOV.W     #0,r9                 ; [] |1137| 
	.dwpsn	file "../grbl/settings.c",line 1143,column 9,is_stmt,isa 0
        CMP.W     #100,r12              ; [] |1143| 
        JLO       $C$L18                ; [] |1143| 
                                          ; [] |1143| 
;* --------------------------------------------------------------------------*
        CMP.W     #174,r12              ; [] |1143| 
        JHS       $C$L18                ; [] |1143| 
                                          ; [] |1143| 
;* --------------------------------------------------------------------------*
        MOVX.A    SP,r13                ; [] |1143| 
$C$DW$82	.dwtag  DW_TAG_TI_branch
	.dwattr $C$DW$82, DW_AT_low_pc(0x00)
	.dwattr $C$DW$82, DW_AT_name("settings_get_axis_base")
	.dwattr $C$DW$82, DW_AT_TI_call

        CALLA     #settings_get_axis_base ; [] |1143| 
                                          ; [] |1143| 
        SUB.W     #100,r12              ; [] |1143| 
        JEQ       $C$L17                ; [] |1143| 
                                          ; [] |1143| 
;* --------------------------------------------------------------------------*
        SUB.W     #10,r12               ; [] |1143| 
        JEQ       $C$L16                ; [] |1143| 
                                          ; [] |1143| 
;* --------------------------------------------------------------------------*
        SUB.W     #10,r12               ; [] |1143| 
        JEQ       $C$L15                ; [] |1143| 
                                          ; [] |1143| 
;* --------------------------------------------------------------------------*
        SUB.W     #10,r12               ; [] |1143| 
        JEQ       $C$L14                ; [] |1143| 
                                          ; [] |1143| 
;* --------------------------------------------------------------------------*
        SUB.W     #40,r12               ; [] |1143| 
        JNE       $C$L19                ; [] |1143| 
                                          ; [] |1143| 
;* --------------------------------------------------------------------------*
	.dwpsn	file "../grbl/settings.c",line 1168,column 17,is_stmt,isa 0
        MOV.W     0(SP),r15             ; [] |1168| 
        MOVA      r15,r14               ; [] |1168| 
        RLAM.W    #4,r14                ; [] |1168| 
        RLAM.W    #2,r15                ; [] |1168| 
        ADD.W     r14,r15               ; [] |1168| 
        MOV.W     settings+52(r15),r10  ; [] |1168| 
        MOV.W     settings+54(r15),r9   ; [] |1168| 
	.dwpsn	file "../grbl/settings.c",line 1169,column 17,is_stmt,isa 0
        JMP       $C$L19                ; [] |1169| 
                                          ; [] |1169| 
;* --------------------------------------------------------------------------*
$C$L14:    
	.dwpsn	file "../grbl/settings.c",line 1158,column 17,is_stmt,isa 0
        MOV.W     0(SP),r15             ; [] |1158| 
        MOVA      r15,r14               ; [] |1158| 
        RLAM.W    #4,r14                ; [] |1158| 
        RLAM.W    #2,r15                ; [] |1158| 
        ADD.W     r14,r15               ; [] |1158| 
        MOV.W     settings+48(r15),r12  ; [] |1158| 
        MOV.W     settings+50(r15),r13  ; [] |1158| 
$C$DW$83	.dwtag  DW_TAG_TI_branch
	.dwattr $C$DW$83, DW_AT_low_pc(0x00)
	.dwattr $C$DW$83, DW_AT_name("__mspabi_negf")
	.dwattr $C$DW$83, DW_AT_TI_call

        CALLA     #__mspabi_negf        ; [] |1158| 
                                          ; [] |1158| 
        MOVA      r12,r10               ; [] |1158| 
        MOVA      r13,r9                ; [] |1158| 
	.dwpsn	file "../grbl/settings.c",line 1159,column 17,is_stmt,isa 0
        JMP       $C$L19                ; [] |1159| 
                                          ; [] |1159| 
;* --------------------------------------------------------------------------*
$C$L15:    
	.dwpsn	file "../grbl/settings.c",line 1154,column 17,is_stmt,isa 0
        MOV.W     0(SP),r15             ; [] |1154| 
        MOVA      r15,r14               ; [] |1154| 
        RLAM.W    #4,r14                ; [] |1154| 
        RLAM.W    #2,r15                ; [] |1154| 
        ADD.W     r14,r15               ; [] |1154| 
        MOV.W     settings+44(r15),r12  ; [] |1154| 
        MOV.W     settings+46(r15),r13  ; [] |1154| 
        MOV.W     #0,r14                ; [] |1154| 
        MOV.W     #17761,r15            ; [] |1154| 
$C$DW$84	.dwtag  DW_TAG_TI_branch
	.dwattr $C$DW$84, DW_AT_low_pc(0x00)
	.dwattr $C$DW$84, DW_AT_name("__mspabi_divf")
	.dwattr $C$DW$84, DW_AT_TI_call

        CALLA     #__mspabi_divf        ; [] |1154| 
                                          ; [] |1154| 
        MOVA      r12,r10               ; [] |1154| 
        MOVA      r13,r9                ; [] |1154| 
	.dwpsn	file "../grbl/settings.c",line 1155,column 17,is_stmt,isa 0
        JMP       $C$L19                ; [] |1155| 
                                          ; [] |1155| 
;* --------------------------------------------------------------------------*
$C$L16:    
	.dwpsn	file "../grbl/settings.c",line 1150,column 17,is_stmt,isa 0
        MOV.W     0(SP),r15             ; [] |1150| 
        MOVA      r15,r14               ; [] |1150| 
        RLAM.W    #4,r14                ; [] |1150| 
        RLAM.W    #2,r15                ; [] |1150| 
        ADD.W     r14,r15               ; [] |1150| 
        MOV.W     settings+40(r15),r10  ; [] |1150| 
        MOV.W     settings+42(r15),r9   ; [] |1150| 
	.dwpsn	file "../grbl/settings.c",line 1151,column 17,is_stmt,isa 0
        JMP       $C$L19                ; [] |1151| 
                                          ; [] |1151| 
;* --------------------------------------------------------------------------*
$C$L17:    
	.dwpsn	file "../grbl/settings.c",line 1146,column 17,is_stmt,isa 0
        MOV.W     0(SP),r15             ; [] |1146| 
        MOVA      r15,r14               ; [] |1146| 
        RLAM.W    #4,r14                ; [] |1146| 
        RLAM.W    #2,r15                ; [] |1146| 
        ADD.W     r14,r15               ; [] |1146| 
        MOV.W     settings+36(r15),r10  ; [] |1146| 
        MOV.W     settings+38(r15),r9   ; [] |1146| 
	.dwpsn	file "../grbl/settings.c",line 1147,column 17,is_stmt,isa 0
        JMP       $C$L19                ; [] |1147| 
                                          ; [] |1147| 
;* --------------------------------------------------------------------------*
$C$L18:    
	.dwpsn	file "../grbl/settings.c",line 1174,column 12,is_stmt,isa 0
        CMP.W     #342,r12              ; [] |1174| 
        JNE       $C$L19                ; [] |1174| 
                                          ; [] |1174| 
;* --------------------------------------------------------------------------*
	.dwpsn	file "../grbl/settings.c",line 1177,column 13,is_stmt,isa 0
        MOV.W     &settings+30,r10      ; [] |1177| 
        MOV.W     &settings+32,r9       ; [] |1177| 
;* --------------------------------------------------------------------------*
$C$L19:    
	.dwpsn	file "../grbl/settings.c",line 1184,column 5,is_stmt,isa 0
        MOVA      r10,r12               ; [] |1184| 
        MOVA      r9,r13                ; [] |1184| 
	.dwpsn	file "../grbl/settings.c",line 1185,column 1,is_stmt,isa 0
        ADDA      #2,SP                 ; [] 
	.dwcfi	cfa_offset, 12
        POPM.A    #2,r10                ; [] 
	.dwcfi	restore_reg, 9
	.dwcfi	restore_reg, 10
	.dwcfi	cfa_offset, 4
$C$DW$85	.dwtag  DW_TAG_TI_branch
	.dwattr $C$DW$85, DW_AT_low_pc(0x00)
	.dwattr $C$DW$85, DW_AT_TI_return

        RETA      ; [] 
        ; [] 
	.dwattr $C$DW$77, DW_AT_TI_end_file("../grbl/settings.c")
	.dwattr $C$DW$77, DW_AT_TI_end_line(0x4a1)
	.dwattr $C$DW$77, DW_AT_TI_end_column(0x01)
	.dwendentry
	.dwendtag $C$DW$77

	.sect	".text:settings_get_details"
	.clink
	.global	settings_get_details

$C$DW$86	.dwtag  DW_TAG_subprogram
	.dwattr $C$DW$86, DW_AT_name("settings_get_details")
	.dwattr $C$DW$86, DW_AT_low_pc(settings_get_details)
	.dwattr $C$DW$86, DW_AT_high_pc(0x00)
	.dwattr $C$DW$86, DW_AT_TI_symbol_name("settings_get_details")
	.dwattr $C$DW$86, DW_AT_external
	.dwattr $C$DW$86, DW_AT_type(*$C$DW$T$206)
	.dwattr $C$DW$86, DW_AT_TI_begin_file("../grbl/settings.c")
	.dwattr $C$DW$86, DW_AT_TI_begin_line(0x2db)
	.dwattr $C$DW$86, DW_AT_TI_begin_column(0x14)
	.dwattr $C$DW$86, DW_AT_decl_file("../grbl/settings.c")
	.dwattr $C$DW$86, DW_AT_decl_line(0x2db)
	.dwattr $C$DW$86, DW_AT_decl_column(0x14)
	.dwattr $C$DW$86, DW_AT_TI_max_frame_size(0x04)
	.dwpsn	file "../grbl/settings.c",line 732,column 1,is_stmt,address settings_get_details,isa 0

	.dwfde $C$DW$CIE, settings_get_details

;*****************************************************************************
;* FUNCTION NAME: settings_get_details                                       *
;*                                                                           *
;*   Regs Modified     : SP,r12                                              *
;*   Regs Used         : SP,r12                                              *
;*   Local Frame Size  : 0 Args + 0 Auto + 0 Save = 0 byte                   *
;*****************************************************************************
settings_get_details:
;* --------------------------------------------------------------------------*
	.dwcfi	cfa_offset, 4
	.dwcfi	save_reg_to_mem, 16, -4
	.dwpsn	file "../grbl/settings.c",line 733,column 5,is_stmt,isa 0
        MOVX.A    #setting_details+0,r12 ; [] |733| 
	.dwpsn	file "../grbl/settings.c",line 734,column 1,is_stmt,isa 0
$C$DW$87	.dwtag  DW_TAG_TI_branch
	.dwattr $C$DW$87, DW_AT_low_pc(0x00)
	.dwattr $C$DW$87, DW_AT_TI_return

        RETA      ; [] 
        ; [] 
	.dwattr $C$DW$86, DW_AT_TI_end_file("../grbl/settings.c")
	.dwattr $C$DW$86, DW_AT_TI_end_line(0x2de)
	.dwattr $C$DW$86, DW_AT_TI_end_column(0x01)
	.dwendentry
	.dwendtag $C$DW$86

	.sect	".text:set_probe_allow_feed_override"
	.clink

$C$DW$88	.dwtag  DW_TAG_subprogram
	.dwattr $C$DW$88, DW_AT_name("set_probe_allow_feed_override")
	.dwattr $C$DW$88, DW_AT_low_pc(set_probe_allow_feed_override)
	.dwattr $C$DW$88, DW_AT_high_pc(0x00)
	.dwattr $C$DW$88, DW_AT_TI_symbol_name("set_probe_allow_feed_override")
	.dwattr $C$DW$88, DW_AT_type(*$C$DW$T$132)
	.dwattr $C$DW$88, DW_AT_TI_begin_file("../grbl/settings.c")
	.dwattr $C$DW$88, DW_AT_TI_begin_line(0x3c8)
	.dwattr $C$DW$88, DW_AT_TI_begin_column(0x16)
	.dwattr $C$DW$88, DW_AT_decl_file("../grbl/settings.c")
	.dwattr $C$DW$88, DW_AT_decl_line(0x3c8)
	.dwattr $C$DW$88, DW_AT_decl_column(0x16)
	.dwattr $C$DW$88, DW_AT_TI_max_frame_size(0x04)
	.dwpsn	file "../grbl/settings.c",line 969,column 1,is_stmt,address set_probe_allow_feed_override,isa 0

	.dwfde $C$DW$CIE, set_probe_allow_feed_override
$C$DW$89	.dwtag  DW_TAG_formal_parameter
	.dwattr $C$DW$89, DW_AT_name("id")
	.dwattr $C$DW$89, DW_AT_TI_symbol_name("id")
	.dwattr $C$DW$89, DW_AT_type(*$C$DW$T$630)
	.dwattr $C$DW$89, DW_AT_location[DW_OP_reg12]

$C$DW$90	.dwtag  DW_TAG_formal_parameter
	.dwattr $C$DW$90, DW_AT_name("int_value")
	.dwattr $C$DW$90, DW_AT_TI_symbol_name("int_value")
	.dwattr $C$DW$90, DW_AT_type(*$C$DW$T$149)
	.dwattr $C$DW$90, DW_AT_location[DW_OP_reg13]


;*****************************************************************************
;* FUNCTION NAME: set_probe_allow_feed_override                              *
;*                                                                           *
;*   Regs Modified     : SP,SR,r12,r14,r15                                   *
;*   Regs Used         : SP,SR,r12,r13,r14,r15                               *
;*   Local Frame Size  : 0 Args + 0 Auto + 0 Save = 0 byte                   *
;*****************************************************************************
set_probe_allow_feed_override:
;* --------------------------------------------------------------------------*
	.dwcfi	cfa_offset, 4
	.dwcfi	save_reg_to_mem, 16, -4
;* r13   assigned to int_value
$C$DW$91	.dwtag  DW_TAG_variable
	.dwattr $C$DW$91, DW_AT_name("int_value")
	.dwattr $C$DW$91, DW_AT_TI_symbol_name("int_value")
	.dwattr $C$DW$91, DW_AT_type(*$C$DW$T$149)
	.dwattr $C$DW$91, DW_AT_location[DW_OP_reg13]

	.dwpsn	file "../grbl/settings.c",line 970,column 5,is_stmt,isa 0
        MOV.B     #0,r14                ; [] |970| 
        TST.W     r13                   ; [] |970| 
        JEQ       $C$L20                ; [] |970| 
                                          ; [] |970| 
;* --------------------------------------------------------------------------*
        MOV.B     #1,r14                ; [] |970| 
;* --------------------------------------------------------------------------*
$C$L20:    
        MOVA      r14,r15               ; [] |970| 
        MOV.W     #239,r14              ; [] |970| 
        AND.B     &settings+238,r14     ; [] |970| 
        AND.B     #1,r15                ; [] |970| 
        RPT #4 || RLAX.B r15 ; [] |970| 
        OR.B      r15,r14               ; [] |970| 
        MOV.B     r14,&settings+238     ; [] |970| 
	.dwpsn	file "../grbl/settings.c",line 972,column 5,is_stmt,isa 0
        MOV.W     #0,r12                ; [] |972| 
	.dwpsn	file "../grbl/settings.c",line 973,column 1,is_stmt,isa 0
$C$DW$92	.dwtag  DW_TAG_TI_branch
	.dwattr $C$DW$92, DW_AT_low_pc(0x00)
	.dwattr $C$DW$92, DW_AT_TI_return

        RETA      ; [] 
        ; [] 
	.dwattr $C$DW$88, DW_AT_TI_end_file("../grbl/settings.c")
	.dwattr $C$DW$88, DW_AT_TI_end_line(0x3cd)
	.dwattr $C$DW$88, DW_AT_TI_end_column(0x01)
	.dwendentry
	.dwendtag $C$DW$88

	.sect	".text:set_force_initialization_alarm"
	.clink

$C$DW$93	.dwtag  DW_TAG_subprogram
	.dwattr $C$DW$93, DW_AT_name("set_force_initialization_alarm")
	.dwattr $C$DW$93, DW_AT_low_pc(set_force_initialization_alarm)
	.dwattr $C$DW$93, DW_AT_high_pc(0x00)
	.dwattr $C$DW$93, DW_AT_TI_symbol_name("set_force_initialization_alarm")
	.dwattr $C$DW$93, DW_AT_type(*$C$DW$T$132)
	.dwattr $C$DW$93, DW_AT_TI_begin_file("../grbl/settings.c")
	.dwattr $C$DW$93, DW_AT_TI_begin_line(0x3c1)
	.dwattr $C$DW$93, DW_AT_TI_begin_column(0x16)
	.dwattr $C$DW$93, DW_AT_decl_file("../grbl/settings.c")
	.dwattr $C$DW$93, DW_AT_decl_line(0x3c1)
	.dwattr $C$DW$93, DW_AT_decl_column(0x16)
	.dwattr $C$DW$93, DW_AT_TI_max_frame_size(0x04)
	.dwpsn	file "../grbl/settings.c",line 962,column 1,is_stmt,address set_force_initialization_alarm,isa 0

	.dwfde $C$DW$CIE, set_force_initialization_alarm
$C$DW$94	.dwtag  DW_TAG_formal_parameter
	.dwattr $C$DW$94, DW_AT_name("id")
	.dwattr $C$DW$94, DW_AT_TI_symbol_name("id")
	.dwattr $C$DW$94, DW_AT_type(*$C$DW$T$630)
	.dwattr $C$DW$94, DW_AT_location[DW_OP_reg12]

$C$DW$95	.dwtag  DW_TAG_formal_parameter
	.dwattr $C$DW$95, DW_AT_name("int_value")
	.dwattr $C$DW$95, DW_AT_TI_symbol_name("int_value")
	.dwattr $C$DW$95, DW_AT_type(*$C$DW$T$149)
	.dwattr $C$DW$95, DW_AT_location[DW_OP_reg13]


;*****************************************************************************
;* FUNCTION NAME: set_force_initialization_alarm                             *
;*                                                                           *
;*   Regs Modified     : SP,SR,r12,r14,r15                                   *
;*   Regs Used         : SP,SR,r12,r13,r14,r15                               *
;*   Local Frame Size  : 0 Args + 0 Auto + 0 Save = 0 byte                   *
;*****************************************************************************
set_force_initialization_alarm:
;* --------------------------------------------------------------------------*
	.dwcfi	cfa_offset, 4
	.dwcfi	save_reg_to_mem, 16, -4
;* r13   assigned to int_value
$C$DW$96	.dwtag  DW_TAG_variable
	.dwattr $C$DW$96, DW_AT_name("int_value")
	.dwattr $C$DW$96, DW_AT_TI_symbol_name("int_value")
	.dwattr $C$DW$96, DW_AT_type(*$C$DW$T$149)
	.dwattr $C$DW$96, DW_AT_location[DW_OP_reg13]

	.dwpsn	file "../grbl/settings.c",line 963,column 5,is_stmt,isa 0
        MOV.W     #0,r14                ; [] |963| 
        TST.W     r13                   ; [] |963| 
        JEQ       $C$L21                ; [] |963| 
                                          ; [] |963| 
;* --------------------------------------------------------------------------*
        MOV.W     #1,r14                ; [] |963| 
;* --------------------------------------------------------------------------*
$C$L21:    
        MOVA      r14,r15               ; [] |963| 
        MOV.W     #223,r14              ; [] |963| 
        AND.B     &settings+236,r14     ; [] |963| 
        AND.B     #1,r15                ; [] |963| 
        RPT #5 || RLAX.B r15 ; [] |963| 
        OR.B      r15,r14               ; [] |963| 
        MOV.B     r14,&settings+236     ; [] |963| 
	.dwpsn	file "../grbl/settings.c",line 965,column 5,is_stmt,isa 0
        MOV.W     #0,r12                ; [] |965| 
	.dwpsn	file "../grbl/settings.c",line 966,column 1,is_stmt,isa 0
$C$DW$97	.dwtag  DW_TAG_TI_branch
	.dwattr $C$DW$97, DW_AT_low_pc(0x00)
	.dwattr $C$DW$97, DW_AT_TI_return

        RETA      ; [] 
        ; [] 
	.dwattr $C$DW$93, DW_AT_TI_end_file("../grbl/settings.c")
	.dwattr $C$DW$93, DW_AT_TI_end_line(0x3c6)
	.dwattr $C$DW$93, DW_AT_TI_end_column(0x01)
	.dwendentry
	.dwendtag $C$DW$93

	.sect	".text:set_hold_actions"
	.clink

$C$DW$98	.dwtag  DW_TAG_subprogram
	.dwattr $C$DW$98, DW_AT_name("set_hold_actions")
	.dwattr $C$DW$98, DW_AT_low_pc(set_hold_actions)
	.dwattr $C$DW$98, DW_AT_high_pc(0x00)
	.dwattr $C$DW$98, DW_AT_TI_symbol_name("set_hold_actions")
	.dwattr $C$DW$98, DW_AT_type(*$C$DW$T$132)
	.dwattr $C$DW$98, DW_AT_TI_begin_file("../grbl/settings.c")
	.dwattr $C$DW$98, DW_AT_TI_begin_line(0x3b0)
	.dwattr $C$DW$98, DW_AT_TI_begin_column(0x16)
	.dwattr $C$DW$98, DW_AT_decl_file("../grbl/settings.c")
	.dwattr $C$DW$98, DW_AT_decl_line(0x3b0)
	.dwattr $C$DW$98, DW_AT_decl_column(0x16)
	.dwattr $C$DW$98, DW_AT_TI_max_frame_size(0x04)
	.dwpsn	file "../grbl/settings.c",line 945,column 1,is_stmt,address set_hold_actions,isa 0

	.dwfde $C$DW$CIE, set_hold_actions
$C$DW$99	.dwtag  DW_TAG_formal_parameter
	.dwattr $C$DW$99, DW_AT_name("id")
	.dwattr $C$DW$99, DW_AT_TI_symbol_name("id")
	.dwattr $C$DW$99, DW_AT_type(*$C$DW$T$630)
	.dwattr $C$DW$99, DW_AT_location[DW_OP_reg12]

$C$DW$100	.dwtag  DW_TAG_formal_parameter
	.dwattr $C$DW$100, DW_AT_name("int_value")
	.dwattr $C$DW$100, DW_AT_TI_symbol_name("int_value")
	.dwattr $C$DW$100, DW_AT_type(*$C$DW$T$149)
	.dwattr $C$DW$100, DW_AT_location[DW_OP_reg13]


;*****************************************************************************
;* FUNCTION NAME: set_hold_actions                                           *
;*                                                                           *
;*   Regs Modified     : SP,SR,r12,r13,r14,r15                               *
;*   Regs Used         : SP,SR,r12,r13,r14,r15                               *
;*   Local Frame Size  : 0 Args + 0 Auto + 0 Save = 0 byte                   *
;*****************************************************************************
set_hold_actions:
;* --------------------------------------------------------------------------*
	.dwcfi	cfa_offset, 4
	.dwcfi	save_reg_to_mem, 16, -4
;* r13   assigned to int_value
$C$DW$101	.dwtag  DW_TAG_variable
	.dwattr $C$DW$101, DW_AT_name("int_value")
	.dwattr $C$DW$101, DW_AT_TI_symbol_name("int_value")
	.dwattr $C$DW$101, DW_AT_type(*$C$DW$T$149)
	.dwattr $C$DW$101, DW_AT_location[DW_OP_reg13]

	.dwpsn	file "../grbl/settings.c",line 946,column 5,is_stmt,isa 0
        MOV.W     #239,r14              ; [] |946| 
        AND.B     &settings+236,r14     ; [] |946| 
        MOVA      r13,r15               ; [] |946| 
        AND.B     #1,r15                ; [] |946| 
        RPT #4 || RLAX.B r15 ; [] |946| 
        OR.B      r15,r14               ; [] |946| 
        MOV.B     r14,&settings+236     ; [] |946| 
	.dwpsn	file "../grbl/settings.c",line 947,column 5,is_stmt,isa 0
        MOV.W     #127,r15              ; [] |947| 
        AND.B     &settings+236,r15     ; [] |947| 
        RRUM.W    #1,r13                ; [] |947| 
        AND.B     #1,r13                ; [] |947| 
        RPT #7 || RLAX.B r13 ; [] |947| 
        OR.B      r15,r13               ; [] |947| 
        MOV.B     r13,&settings+236     ; [] |947| 
	.dwpsn	file "../grbl/settings.c",line 949,column 5,is_stmt,isa 0
        MOV.W     #0,r12                ; [] |949| 
	.dwpsn	file "../grbl/settings.c",line 950,column 1,is_stmt,isa 0
$C$DW$102	.dwtag  DW_TAG_TI_branch
	.dwattr $C$DW$102, DW_AT_low_pc(0x00)
	.dwattr $C$DW$102, DW_AT_TI_return

        RETA      ; [] 
        ; [] 
	.dwattr $C$DW$98, DW_AT_TI_end_file("../grbl/settings.c")
	.dwattr $C$DW$98, DW_AT_TI_end_line(0x3b6)
	.dwattr $C$DW$98, DW_AT_TI_end_column(0x01)
	.dwendentry
	.dwendtag $C$DW$98

	.sect	".text:set_sleep_enable"
	.clink

$C$DW$103	.dwtag  DW_TAG_subprogram
	.dwattr $C$DW$103, DW_AT_name("set_sleep_enable")
	.dwattr $C$DW$103, DW_AT_low_pc(set_sleep_enable)
	.dwattr $C$DW$103, DW_AT_high_pc(0x00)
	.dwattr $C$DW$103, DW_AT_TI_symbol_name("set_sleep_enable")
	.dwattr $C$DW$103, DW_AT_type(*$C$DW$T$132)
	.dwattr $C$DW$103, DW_AT_TI_begin_file("../grbl/settings.c")
	.dwattr $C$DW$103, DW_AT_TI_begin_line(0x3a9)
	.dwattr $C$DW$103, DW_AT_TI_begin_column(0x16)
	.dwattr $C$DW$103, DW_AT_decl_file("../grbl/settings.c")
	.dwattr $C$DW$103, DW_AT_decl_line(0x3a9)
	.dwattr $C$DW$103, DW_AT_decl_column(0x16)
	.dwattr $C$DW$103, DW_AT_TI_max_frame_size(0x04)
	.dwpsn	file "../grbl/settings.c",line 938,column 1,is_stmt,address set_sleep_enable,isa 0

	.dwfde $C$DW$CIE, set_sleep_enable
$C$DW$104	.dwtag  DW_TAG_formal_parameter
	.dwattr $C$DW$104, DW_AT_name("id")
	.dwattr $C$DW$104, DW_AT_TI_symbol_name("id")
	.dwattr $C$DW$104, DW_AT_type(*$C$DW$T$630)
	.dwattr $C$DW$104, DW_AT_location[DW_OP_reg12]

$C$DW$105	.dwtag  DW_TAG_formal_parameter
	.dwattr $C$DW$105, DW_AT_name("int_value")
	.dwattr $C$DW$105, DW_AT_TI_symbol_name("int_value")
	.dwattr $C$DW$105, DW_AT_type(*$C$DW$T$149)
	.dwattr $C$DW$105, DW_AT_location[DW_OP_reg13]


;*****************************************************************************
;* FUNCTION NAME: set_sleep_enable                                           *
;*                                                                           *
;*   Regs Modified     : SP,SR,r12,r14,r15                                   *
;*   Regs Used         : SP,SR,r12,r13,r14,r15                               *
;*   Local Frame Size  : 0 Args + 0 Auto + 0 Save = 0 byte                   *
;*****************************************************************************
set_sleep_enable:
;* --------------------------------------------------------------------------*
	.dwcfi	cfa_offset, 4
	.dwcfi	save_reg_to_mem, 16, -4
;* r13   assigned to int_value
$C$DW$106	.dwtag  DW_TAG_variable
	.dwattr $C$DW$106, DW_AT_name("int_value")
	.dwattr $C$DW$106, DW_AT_TI_symbol_name("int_value")
	.dwattr $C$DW$106, DW_AT_type(*$C$DW$T$149)
	.dwattr $C$DW$106, DW_AT_location[DW_OP_reg13]

	.dwpsn	file "../grbl/settings.c",line 939,column 5,is_stmt,isa 0
        MOV.W     #0,r14                ; [] |939| 
        TST.W     r13                   ; [] |939| 
        JEQ       $C$L22                ; [] |939| 
                                          ; [] |939| 
;* --------------------------------------------------------------------------*
        MOV.W     #1,r14                ; [] |939| 
;* --------------------------------------------------------------------------*
$C$L22:    
        MOVA      r14,r15               ; [] |939| 
        MOV.B     &settings+236,r14     ; [] |939| 
        BIC.B     #8,r14                ; [] |939| 
        AND.B     #1,r15                ; [] |939| 
        RPT #3 || RLAX.B r15 ; [] |939| 
        OR.B      r15,r14               ; [] |939| 
        MOV.B     r14,&settings+236     ; [] |939| 
	.dwpsn	file "../grbl/settings.c",line 941,column 5,is_stmt,isa 0
        MOV.W     #0,r12                ; [] |941| 
	.dwpsn	file "../grbl/settings.c",line 942,column 1,is_stmt,isa 0
$C$DW$107	.dwtag  DW_TAG_TI_branch
	.dwattr $C$DW$107, DW_AT_low_pc(0x00)
	.dwattr $C$DW$107, DW_AT_TI_return

        RETA      ; [] 
        ; [] 
	.dwattr $C$DW$103, DW_AT_TI_end_file("../grbl/settings.c")
	.dwattr $C$DW$103, DW_AT_TI_end_line(0x3ae)
	.dwattr $C$DW$103, DW_AT_TI_end_column(0x01)
	.dwendentry
	.dwendtag $C$DW$103

	.sect	".text:set_homing_cycle"
	.clink

$C$DW$108	.dwtag  DW_TAG_subprogram
	.dwattr $C$DW$108, DW_AT_name("set_homing_cycle")
	.dwattr $C$DW$108, DW_AT_low_pc(set_homing_cycle)
	.dwattr $C$DW$108, DW_AT_high_pc(0x00)
	.dwattr $C$DW$108, DW_AT_TI_symbol_name("set_homing_cycle")
	.dwattr $C$DW$108, DW_AT_type(*$C$DW$T$132)
	.dwattr $C$DW$108, DW_AT_TI_begin_file("../grbl/settings.c")
	.dwattr $C$DW$108, DW_AT_TI_begin_line(0x371)
	.dwattr $C$DW$108, DW_AT_TI_begin_column(0x16)
	.dwattr $C$DW$108, DW_AT_decl_file("../grbl/settings.c")
	.dwattr $C$DW$108, DW_AT_decl_line(0x371)
	.dwattr $C$DW$108, DW_AT_decl_column(0x16)
	.dwattr $C$DW$108, DW_AT_TI_max_frame_size(0x04)
	.dwpsn	file "../grbl/settings.c",line 882,column 1,is_stmt,address set_homing_cycle,isa 0

	.dwfde $C$DW$CIE, set_homing_cycle
$C$DW$109	.dwtag  DW_TAG_formal_parameter
	.dwattr $C$DW$109, DW_AT_name("id")
	.dwattr $C$DW$109, DW_AT_TI_symbol_name("id")
	.dwattr $C$DW$109, DW_AT_type(*$C$DW$T$630)
	.dwattr $C$DW$109, DW_AT_location[DW_OP_reg12]

$C$DW$110	.dwtag  DW_TAG_formal_parameter
	.dwattr $C$DW$110, DW_AT_name("int_value")
	.dwattr $C$DW$110, DW_AT_TI_symbol_name("int_value")
	.dwattr $C$DW$110, DW_AT_type(*$C$DW$T$149)
	.dwattr $C$DW$110, DW_AT_location[DW_OP_reg13]


;*****************************************************************************
;* FUNCTION NAME: set_homing_cycle                                           *
;*                                                                           *
;*   Regs Modified     : SP,SR,r11,r12,r13,r14,r15                           *
;*   Regs Used         : SP,SR,r11,r12,r13,r14,r15                           *
;*   Local Frame Size  : 0 Args + 0 Auto + 0 Save = 0 byte                   *
;*****************************************************************************
set_homing_cycle:
;* --------------------------------------------------------------------------*
	.dwcfi	cfa_offset, 4
	.dwcfi	save_reg_to_mem, 16, -4
;* r13   assigned to int_value
$C$DW$111	.dwtag  DW_TAG_variable
	.dwattr $C$DW$111, DW_AT_name("int_value")
	.dwattr $C$DW$111, DW_AT_TI_symbol_name("int_value")
	.dwattr $C$DW$111, DW_AT_type(*$C$DW$T$149)
	.dwattr $C$DW$111, DW_AT_location[DW_OP_reg13]

	.dwpsn	file "../grbl/settings.c",line 883,column 5,is_stmt,isa 0
        SUB.W     #44,r12               ; [] |883| 
        MOV.B     r13,settings+257(r12) ; [] |883| 
	.dwpsn	file "../grbl/settings.c",line 884,column 5,is_stmt,isa 0
$C$DW$112	.dwtag  DW_TAG_TI_branch
	.dwattr $C$DW$112, DW_AT_low_pc(0x00)
	.dwattr $C$DW$112, DW_AT_name("limits_set_homing_axes")
	.dwattr $C$DW$112, DW_AT_TI_call

        CALLA     #limits_set_homing_axes ; [] |884| 
                                          ; [] |884| 
	.dwpsn	file "../grbl/settings.c",line 886,column 5,is_stmt,isa 0
        MOV.W     #0,r12                ; [] |886| 
	.dwpsn	file "../grbl/settings.c",line 887,column 1,is_stmt,isa 0
$C$DW$113	.dwtag  DW_TAG_TI_branch
	.dwattr $C$DW$113, DW_AT_low_pc(0x00)
	.dwattr $C$DW$113, DW_AT_TI_return

        RETA      ; [] 
        ; [] 
	.dwattr $C$DW$108, DW_AT_TI_end_file("../grbl/settings.c")
	.dwattr $C$DW$108, DW_AT_TI_end_line(0x377)
	.dwattr $C$DW$108, DW_AT_TI_end_column(0x01)
	.dwendentry
	.dwendtag $C$DW$108

	.sect	".text:set_jog_soft_limited"
	.clink

$C$DW$114	.dwtag  DW_TAG_subprogram
	.dwattr $C$DW$114, DW_AT_name("set_jog_soft_limited")
	.dwattr $C$DW$114, DW_AT_low_pc(set_jog_soft_limited)
	.dwattr $C$DW$114, DW_AT_high_pc(0x00)
	.dwattr $C$DW$114, DW_AT_TI_symbol_name("set_jog_soft_limited")
	.dwattr $C$DW$114, DW_AT_type(*$C$DW$T$132)
	.dwattr $C$DW$114, DW_AT_TI_begin_file("../grbl/settings.c")
	.dwattr $C$DW$114, DW_AT_TI_begin_line(0x34b)
	.dwattr $C$DW$114, DW_AT_TI_begin_column(0x16)
	.dwattr $C$DW$114, DW_AT_decl_file("../grbl/settings.c")
	.dwattr $C$DW$114, DW_AT_decl_line(0x34b)
	.dwattr $C$DW$114, DW_AT_decl_column(0x16)
	.dwattr $C$DW$114, DW_AT_TI_max_frame_size(0x04)
	.dwpsn	file "../grbl/settings.c",line 844,column 1,is_stmt,address set_jog_soft_limited,isa 0

	.dwfde $C$DW$CIE, set_jog_soft_limited
$C$DW$115	.dwtag  DW_TAG_formal_parameter
	.dwattr $C$DW$115, DW_AT_name("id")
	.dwattr $C$DW$115, DW_AT_TI_symbol_name("id")
	.dwattr $C$DW$115, DW_AT_type(*$C$DW$T$630)
	.dwattr $C$DW$115, DW_AT_location[DW_OP_reg12]

$C$DW$116	.dwtag  DW_TAG_formal_parameter
	.dwattr $C$DW$116, DW_AT_name("int_value")
	.dwattr $C$DW$116, DW_AT_TI_symbol_name("int_value")
	.dwattr $C$DW$116, DW_AT_type(*$C$DW$T$149)
	.dwattr $C$DW$116, DW_AT_location[DW_OP_reg13]


;*****************************************************************************
;* FUNCTION NAME: set_jog_soft_limited                                       *
;*                                                                           *
;*   Regs Modified     : SP,SR,r12,r14,r15                                   *
;*   Regs Used         : SP,SR,r12,r13,r14,r15                               *
;*   Local Frame Size  : 0 Args + 0 Auto + 0 Save = 0 byte                   *
;*****************************************************************************
set_jog_soft_limited:
;* --------------------------------------------------------------------------*
	.dwcfi	cfa_offset, 4
	.dwcfi	save_reg_to_mem, 16, -4
;* r13   assigned to int_value
$C$DW$117	.dwtag  DW_TAG_variable
	.dwattr $C$DW$117, DW_AT_name("int_value")
	.dwattr $C$DW$117, DW_AT_TI_symbol_name("int_value")
	.dwattr $C$DW$117, DW_AT_type(*$C$DW$T$149)
	.dwattr $C$DW$117, DW_AT_location[DW_OP_reg13]

	.dwpsn	file "../grbl/settings.c",line 845,column 5,is_stmt,isa 0
        TST.W     r13                   ; [] |845| 
        JEQ       $C$L23                ; [] |845| 
                                          ; [] |845| 
;* --------------------------------------------------------------------------*
        BIT.B     #1,&settings+256      ; [] |845| 
        JEQ       $C$L25                ; [] |845| 
                                          ; [] |845| 
;* --------------------------------------------------------------------------*
$C$L23:    
	.dwpsn	file "../grbl/settings.c",line 848,column 5,is_stmt,isa 0
        MOV.B     #0,r14                ; [] |848| 
        TST.W     r13                   ; [] |848| 
        JEQ       $C$L24                ; [] |848| 
                                          ; [] |848| 
;* --------------------------------------------------------------------------*
        MOV.B     #1,r14                ; [] |848| 
;* --------------------------------------------------------------------------*
$C$L24:    
        MOVA      r14,r15               ; [] |848| 
        MOV.B     &settings+272,r14     ; [] |848| 
        BIC.B     #8,r14                ; [] |848| 
        AND.B     #1,r15                ; [] |848| 
        RPT #3 || RLAX.B r15 ; [] |848| 
        OR.B      r15,r14               ; [] |848| 
        MOV.B     r14,&settings+272     ; [] |848| 
	.dwpsn	file "../grbl/settings.c",line 850,column 5,is_stmt,isa 0
        MOV.W     #0,r12                ; [] |850| 
        JMP       $C$L26                ; [] |850| 
                                          ; [] |850| 
;* --------------------------------------------------------------------------*
$C$L25:    
	.dwpsn	file "../grbl/settings.c",line 846,column 9,is_stmt,isa 0
        MOV.W     #10,r12               ; [] |846| 
;* --------------------------------------------------------------------------*
$C$L26:    
	.dwpsn	file "../grbl/settings.c",line 851,column 1,is_stmt,isa 0
$C$DW$118	.dwtag  DW_TAG_TI_branch
	.dwattr $C$DW$118, DW_AT_low_pc(0x00)
	.dwattr $C$DW$118, DW_AT_TI_return

        RETA      ; [] 
        ; [] 
	.dwattr $C$DW$114, DW_AT_TI_end_file("../grbl/settings.c")
	.dwattr $C$DW$114, DW_AT_TI_end_line(0x353)
	.dwattr $C$DW$114, DW_AT_TI_end_column(0x01)
	.dwendentry
	.dwendtag $C$DW$114

	.sect	".text:set_enable_legacy_rt_commands"
	.clink

$C$DW$119	.dwtag  DW_TAG_subprogram
	.dwattr $C$DW$119, DW_AT_name("set_enable_legacy_rt_commands")
	.dwattr $C$DW$119, DW_AT_low_pc(set_enable_legacy_rt_commands)
	.dwattr $C$DW$119, DW_AT_high_pc(0x00)
	.dwattr $C$DW$119, DW_AT_TI_symbol_name("set_enable_legacy_rt_commands")
	.dwattr $C$DW$119, DW_AT_type(*$C$DW$T$132)
	.dwattr $C$DW$119, DW_AT_TI_begin_file("../grbl/settings.c")
	.dwattr $C$DW$119, DW_AT_TI_begin_line(0x36a)
	.dwattr $C$DW$119, DW_AT_TI_begin_column(0x16)
	.dwattr $C$DW$119, DW_AT_decl_file("../grbl/settings.c")
	.dwattr $C$DW$119, DW_AT_decl_line(0x36a)
	.dwattr $C$DW$119, DW_AT_decl_column(0x16)
	.dwattr $C$DW$119, DW_AT_TI_max_frame_size(0x04)
	.dwpsn	file "../grbl/settings.c",line 875,column 1,is_stmt,address set_enable_legacy_rt_commands,isa 0

	.dwfde $C$DW$CIE, set_enable_legacy_rt_commands
$C$DW$120	.dwtag  DW_TAG_formal_parameter
	.dwattr $C$DW$120, DW_AT_name("id")
	.dwattr $C$DW$120, DW_AT_TI_symbol_name("id")
	.dwattr $C$DW$120, DW_AT_type(*$C$DW$T$630)
	.dwattr $C$DW$120, DW_AT_location[DW_OP_reg12]

$C$DW$121	.dwtag  DW_TAG_formal_parameter
	.dwattr $C$DW$121, DW_AT_name("int_value")
	.dwattr $C$DW$121, DW_AT_TI_symbol_name("int_value")
	.dwattr $C$DW$121, DW_AT_type(*$C$DW$T$149)
	.dwattr $C$DW$121, DW_AT_location[DW_OP_reg13]


;*****************************************************************************
;* FUNCTION NAME: set_enable_legacy_rt_commands                              *
;*                                                                           *
;*   Regs Modified     : SP,SR,r12,r14,r15                                   *
;*   Regs Used         : SP,SR,r12,r13,r14,r15                               *
;*   Local Frame Size  : 0 Args + 0 Auto + 0 Save = 0 byte                   *
;*****************************************************************************
set_enable_legacy_rt_commands:
;* --------------------------------------------------------------------------*
	.dwcfi	cfa_offset, 4
	.dwcfi	save_reg_to_mem, 16, -4
;* r13   assigned to int_value
$C$DW$122	.dwtag  DW_TAG_variable
	.dwattr $C$DW$122, DW_AT_name("int_value")
	.dwattr $C$DW$122, DW_AT_TI_symbol_name("int_value")
	.dwattr $C$DW$122, DW_AT_type(*$C$DW$T$149)
	.dwattr $C$DW$122, DW_AT_location[DW_OP_reg13]

	.dwpsn	file "../grbl/settings.c",line 876,column 5,is_stmt,isa 0
        MOV.W     #0,r14                ; [] |876| 
        TST.W     r13                   ; [] |876| 
        JEQ       $C$L27                ; [] |876| 
                                          ; [] |876| 
;* --------------------------------------------------------------------------*
        MOV.W     #1,r14                ; [] |876| 
;* --------------------------------------------------------------------------*
$C$L27:    
        MOVA      r14,r15               ; [] |876| 
        MOV.W     #191,r14              ; [] |876| 
        AND.B     &settings+236,r14     ; [] |876| 
        AND.B     #1,r15                ; [] |876| 
        RPT #6 || RLAX.B r15 ; [] |876| 
        OR.B      r15,r14               ; [] |876| 
        MOV.B     r14,&settings+236     ; [] |876| 
	.dwpsn	file "../grbl/settings.c",line 878,column 5,is_stmt,isa 0
        MOV.W     #0,r12                ; [] |878| 
	.dwpsn	file "../grbl/settings.c",line 879,column 1,is_stmt,isa 0
$C$DW$123	.dwtag  DW_TAG_TI_branch
	.dwattr $C$DW$123, DW_AT_low_pc(0x00)
	.dwattr $C$DW$123, DW_AT_TI_return

        RETA      ; [] 
        ; [] 
	.dwattr $C$DW$119, DW_AT_TI_end_file("../grbl/settings.c")
	.dwattr $C$DW$119, DW_AT_TI_end_line(0x36f)
	.dwattr $C$DW$119, DW_AT_TI_end_column(0x01)
	.dwendentry
	.dwendtag $C$DW$119

	.sect	".text:set_mode"
	.clink

$C$DW$124	.dwtag  DW_TAG_subprogram
	.dwattr $C$DW$124, DW_AT_name("set_mode")
	.dwattr $C$DW$124, DW_AT_low_pc(set_mode)
	.dwattr $C$DW$124, DW_AT_high_pc(0x00)
	.dwattr $C$DW$124, DW_AT_TI_symbol_name("set_mode")
	.dwattr $C$DW$124, DW_AT_type(*$C$DW$T$132)
	.dwattr $C$DW$124, DW_AT_TI_begin_file("../grbl/settings.c")
	.dwattr $C$DW$124, DW_AT_TI_begin_line(0x379)
	.dwattr $C$DW$124, DW_AT_TI_begin_column(0x16)
	.dwattr $C$DW$124, DW_AT_decl_file("../grbl/settings.c")
	.dwattr $C$DW$124, DW_AT_decl_line(0x379)
	.dwattr $C$DW$124, DW_AT_decl_column(0x16)
	.dwattr $C$DW$124, DW_AT_TI_max_frame_size(0x04)
	.dwpsn	file "../grbl/settings.c",line 890,column 1,is_stmt,address set_mode,isa 0

	.dwfde $C$DW$CIE, set_mode
$C$DW$125	.dwtag  DW_TAG_formal_parameter
	.dwattr $C$DW$125, DW_AT_name("id")
	.dwattr $C$DW$125, DW_AT_TI_symbol_name("id")
	.dwattr $C$DW$125, DW_AT_type(*$C$DW$T$630)
	.dwattr $C$DW$125, DW_AT_location[DW_OP_reg12]

$C$DW$126	.dwtag  DW_TAG_formal_parameter
	.dwattr $C$DW$126, DW_AT_name("int_value")
	.dwattr $C$DW$126, DW_AT_TI_symbol_name("int_value")
	.dwattr $C$DW$126, DW_AT_type(*$C$DW$T$149)
	.dwattr $C$DW$126, DW_AT_location[DW_OP_reg13]


;*****************************************************************************
;* FUNCTION NAME: set_mode                                                   *
;*                                                                           *
;*   Regs Modified     : SP,SR,r12,r15                                       *
;*   Regs Used         : SP,SR,r12,r13,r15                                   *
;*   Local Frame Size  : 0 Args + 0 Auto + 0 Save = 0 byte                   *
;*****************************************************************************
set_mode:
;* --------------------------------------------------------------------------*
	.dwcfi	cfa_offset, 4
	.dwcfi	save_reg_to_mem, 16, -4
;* r13   assigned to int_value
$C$DW$127	.dwtag  DW_TAG_variable
	.dwattr $C$DW$127, DW_AT_name("int_value")
	.dwattr $C$DW$127, DW_AT_TI_symbol_name("int_value")
	.dwattr $C$DW$127, DW_AT_type(*$C$DW$T$149)
	.dwattr $C$DW$127, DW_AT_location[DW_OP_reg13]

	.dwpsn	file "../grbl/settings.c",line 891,column 5,is_stmt,isa 0
        MOVA      r13,r15               ; [] |891| 
        TST.W     r15                   ; [] |891| 
        JEQ       $C$L32                ; [] |891| 
                                          ; [] |891| 
;* --------------------------------------------------------------------------*
        SUB.W     #1,r15                ; [] |891| 
        JEQ       $C$L28                ; [] |891| 
                                          ; [] |891| 
;* --------------------------------------------------------------------------*
        SUB.W     #1,r15                ; [] |891| 
        JEQ       $C$L31                ; [] |891| 
                                          ; [] |891| 
;* --------------------------------------------------------------------------*
	.dwpsn	file "../grbl/settings.c",line 911,column 13,is_stmt,isa 0
        MOV.W     #3,r12                ; [] |911| 
        JMP       $C$L34                ; [] |911| 
                                          ; [] |911| 
;* --------------------------------------------------------------------------*
$C$L28:    
	.dwpsn	file "../grbl/settings.c",line 899,column 13,is_stmt,isa 0
        MOV.B     &hal+398,r15          ; [] |899| 
        RRUM.W    #1,r15                ; [] |899| 
        AND.W     #1,r15                ; [] |899| 
        CMP.W     #1,r15                ; [] |899| 
        JEQ       $C$L29                ; [] |899| 
                                          ; [] |899| 
;* --------------------------------------------------------------------------*
	.dwpsn	file "../grbl/settings.c",line 900,column 17,is_stmt,isa 0
        MOV.W     #17,r12               ; [] |900| 
        JMP       $C$L34                ; [] |900| 
                                          ; [] |900| 
;* --------------------------------------------------------------------------*
$C$L29:    
	.dwpsn	file "../grbl/settings.c",line 901,column 13,is_stmt,isa 0
        CMP.W     #1,&settings+16       ; [] |901| 
        JEQ       $C$L30                ; [] |901| 
                                          ; [] |901| 
;* --------------------------------------------------------------------------*
	.dwpsn	file "../grbl/settings.c",line 902,column 17,is_stmt,isa 0
        OR.B      #16,&settings+236     ; [] |902| 
;* --------------------------------------------------------------------------*
$C$L30:    
	.dwpsn	file "../grbl/settings.c",line 903,column 13,is_stmt,isa 0
        MOV.B     #0,&gc_state+6        ; [] |903| 
	.dwpsn	file "../grbl/settings.c",line 904,column 13,is_stmt,isa 0
        JMP       $C$L33                ; [] |904| 
                                          ; [] |904| 
;* --------------------------------------------------------------------------*
$C$L31:    
	.dwpsn	file "../grbl/settings.c",line 907,column 13,is_stmt,isa 0
        AND.B     #239,&settings+236    ; [] |907| 
	.dwpsn	file "../grbl/settings.c",line 908,column 13,is_stmt,isa 0
        JMP       $C$L33                ; [] |908| 
                                          ; [] |908| 
;* --------------------------------------------------------------------------*
$C$L32:    
	.dwpsn	file "../grbl/settings.c",line 894,column 12,is_stmt,isa 0
        AND.B     #239,&settings+236    ; [] |894| 
	.dwpsn	file "../grbl/settings.c",line 895,column 12,is_stmt,isa 0
        MOV.B     #0,&gc_state+6        ; [] |895| 
;* --------------------------------------------------------------------------*
$C$L33:    
	.dwpsn	file "../grbl/settings.c",line 914,column 5,is_stmt,isa 0
        MOV.W     r13,&sys+84           ; [] |914| 
        MOV.W     &sys+84,&settings+16  ; [] |914| 
	.dwpsn	file "../grbl/settings.c",line 916,column 5,is_stmt,isa 0
        MOV.W     #0,r12                ; [] |916| 
;* --------------------------------------------------------------------------*
$C$L34:    
	.dwpsn	file "../grbl/settings.c",line 917,column 1,is_stmt,isa 0
$C$DW$128	.dwtag  DW_TAG_TI_branch
	.dwattr $C$DW$128, DW_AT_low_pc(0x00)
	.dwattr $C$DW$128, DW_AT_TI_return

        RETA      ; [] 
        ; [] 
	.dwattr $C$DW$124, DW_AT_TI_end_file("../grbl/settings.c")
	.dwattr $C$DW$124, DW_AT_TI_end_line(0x395)
	.dwattr $C$DW$124, DW_AT_TI_end_column(0x01)
	.dwendentry
	.dwendtag $C$DW$124

	.sect	".text:set_homing_enable"
	.clink

$C$DW$129	.dwtag  DW_TAG_subprogram
	.dwattr $C$DW$129, DW_AT_name("set_homing_enable")
	.dwattr $C$DW$129, DW_AT_low_pc(set_homing_enable)
	.dwattr $C$DW$129, DW_AT_high_pc(0x00)
	.dwattr $C$DW$129, DW_AT_TI_symbol_name("set_homing_enable")
	.dwattr $C$DW$129, DW_AT_type(*$C$DW$T$132)
	.dwattr $C$DW$129, DW_AT_TI_begin_file("../grbl/settings.c")
	.dwattr $C$DW$129, DW_AT_TI_begin_line(0x355)
	.dwattr $C$DW$129, DW_AT_TI_begin_column(0x16)
	.dwattr $C$DW$129, DW_AT_decl_file("../grbl/settings.c")
	.dwattr $C$DW$129, DW_AT_decl_line(0x355)
	.dwattr $C$DW$129, DW_AT_decl_column(0x16)
	.dwattr $C$DW$129, DW_AT_TI_max_frame_size(0x04)
	.dwpsn	file "../grbl/settings.c",line 854,column 1,is_stmt,address set_homing_enable,isa 0

	.dwfde $C$DW$CIE, set_homing_enable
$C$DW$130	.dwtag  DW_TAG_formal_parameter
	.dwattr $C$DW$130, DW_AT_name("id")
	.dwattr $C$DW$130, DW_AT_TI_symbol_name("id")
	.dwattr $C$DW$130, DW_AT_type(*$C$DW$T$630)
	.dwattr $C$DW$130, DW_AT_location[DW_OP_reg12]

$C$DW$131	.dwtag  DW_TAG_formal_parameter
	.dwattr $C$DW$131, DW_AT_name("int_value")
	.dwattr $C$DW$131, DW_AT_TI_symbol_name("int_value")
	.dwattr $C$DW$131, DW_AT_type(*$C$DW$T$149)
	.dwattr $C$DW$131, DW_AT_location[DW_OP_reg13]


;*****************************************************************************
;* FUNCTION NAME: set_homing_enable                                          *
;*                                                                           *
;*   Regs Modified     : SP,SR,r12,r13,r14,r15                               *
;*   Regs Used         : SP,SR,r12,r13,r14,r15                               *
;*   Local Frame Size  : 0 Args + 0 Auto + 0 Save = 0 byte                   *
;*****************************************************************************
set_homing_enable:
;* --------------------------------------------------------------------------*
	.dwcfi	cfa_offset, 4
	.dwcfi	save_reg_to_mem, 16, -4
;* r13   assigned to int_value
$C$DW$132	.dwtag  DW_TAG_variable
	.dwattr $C$DW$132, DW_AT_name("int_value")
	.dwattr $C$DW$132, DW_AT_TI_symbol_name("int_value")
	.dwattr $C$DW$132, DW_AT_type(*$C$DW$T$149)
	.dwattr $C$DW$132, DW_AT_location[DW_OP_reg13]

	.dwpsn	file "../grbl/settings.c",line 855,column 5,is_stmt,isa 0
        BIT.W     #1,r13                ; [] |855| 
        JNE       $C$L35                ; [] |855| 
                                          ; [] |855| 
;* --------------------------------------------------------------------------*
	.dwpsn	file "../grbl/settings.c",line 866,column 9,is_stmt,isa 0
        MOV.B     #0,&settings+256      ; [] |866| 
	.dwpsn	file "../grbl/settings.c",line 867,column 9,is_stmt,isa 0
        BIC.B     #2,&settings+272      ; [] |867| 
	.dwpsn	file "../grbl/settings.c",line 868,column 9,is_stmt,isa 0
        BIC.B     #8,&settings+272      ; [] |868| 
        JMP       $C$L40                ; [] |868| 
                                          ; [] |868| 
;* --------------------------------------------------------------------------*
$C$L35:    
	.dwpsn	file "../grbl/settings.c",line 859,column 9,is_stmt,isa 0
        MOVA      r13,r15               ; [] |859| 
        AND.B     #15,r15               ; [] |859| 
        MOV.B     r15,&settings+256     ; [] |859| 
	.dwpsn	file "../grbl/settings.c",line 860,column 9,is_stmt,isa 0
        MOV.B     #0,r14                ; [] |860| 
        MOVA      r13,r15               ; [] |860| 
        AND.W     #16,r15               ; [] |860| 
        TST.W     r15                   ; [] |860| 
        JEQ       $C$L36                ; [] |860| 
                                          ; [] |860| 
;* --------------------------------------------------------------------------*
        MOV.B     #1,r14                ; [] |860| 
;* --------------------------------------------------------------------------*
$C$L36:    
        MOVA      r14,r15               ; [] |860| 
        MOV.W     #239,r14              ; [] |860| 
        AND.B     &settings+272,r14     ; [] |860| 
        AND.B     #1,r15                ; [] |860| 
        RPT #4 || RLAX.B r15 ; [] |860| 
        OR.B      r15,r14               ; [] |860| 
        MOV.B     r14,&settings+272     ; [] |860| 
	.dwpsn	file "../grbl/settings.c",line 861,column 9,is_stmt,isa 0
        MOV.B     #0,r14                ; [] |861| 
        MOVA      r13,r15               ; [] |861| 
        AND.W     #32,r15               ; [] |861| 
        TST.W     r15                   ; [] |861| 
        JEQ       $C$L37                ; [] |861| 
                                          ; [] |861| 
;* --------------------------------------------------------------------------*
        MOV.B     #1,r14                ; [] |861| 
;* --------------------------------------------------------------------------*
$C$L37:    
        MOVA      r14,r15               ; [] |861| 
        MOV.W     #239,r14              ; [] |861| 
        AND.B     &settings+256,r14     ; [] |861| 
        AND.B     #1,r15                ; [] |861| 
        RPT #4 || RLAX.B r15 ; [] |861| 
        OR.B      r15,r14               ; [] |861| 
        MOV.B     r14,&settings+256     ; [] |861| 
	.dwpsn	file "../grbl/settings.c",line 862,column 9,is_stmt,isa 0
        MOV.B     #0,r14                ; [] |862| 
        MOVA      r13,r15               ; [] |862| 
        AND.W     #64,r15               ; [] |862| 
        TST.W     r15                   ; [] |862| 
        JEQ       $C$L38                ; [] |862| 
                                          ; [] |862| 
;* --------------------------------------------------------------------------*
        MOV.B     #1,r14                ; [] |862| 
;* --------------------------------------------------------------------------*
$C$L38:    
        MOVA      r14,r15               ; [] |862| 
        MOV.W     #223,r14              ; [] |862| 
        AND.B     &settings+256,r14     ; [] |862| 
        AND.B     #1,r15                ; [] |862| 
        RPT #5 || RLAX.B r15 ; [] |862| 
        OR.B      r15,r14               ; [] |862| 
        MOV.B     r14,&settings+256     ; [] |862| 
	.dwpsn	file "../grbl/settings.c",line 863,column 9,is_stmt,isa 0
        MOV.B     #0,r14                ; [] |863| 
        AND.W     #128,r13              ; [] |863| 
        TST.W     r13                   ; [] |863| 
        JEQ       $C$L39                ; [] |863| 
                                          ; [] |863| 
;* --------------------------------------------------------------------------*
        MOV.B     #1,r14                ; [] |863| 
;* --------------------------------------------------------------------------*
$C$L39:    
        MOVA      r14,r15               ; [] |863| 
        MOV.W     #191,r14              ; [] |863| 
        AND.B     &settings+256,r14     ; [] |863| 
        AND.B     #1,r15                ; [] |863| 
        RPT #6 || RLAX.B r15 ; [] |863| 
        OR.B      r15,r14               ; [] |863| 
        MOV.B     r14,&settings+256     ; [] |863| 
;* --------------------------------------------------------------------------*
$C$L40:    
	.dwpsn	file "../grbl/settings.c",line 871,column 5,is_stmt,isa 0
        MOV.W     #0,r12                ; [] |871| 
	.dwpsn	file "../grbl/settings.c",line 872,column 1,is_stmt,isa 0
$C$DW$133	.dwtag  DW_TAG_TI_branch
	.dwattr $C$DW$133, DW_AT_low_pc(0x00)
	.dwattr $C$DW$133, DW_AT_TI_return

        RETA      ; [] 
        ; [] 
	.dwattr $C$DW$129, DW_AT_TI_end_file("../grbl/settings.c")
	.dwattr $C$DW$129, DW_AT_TI_end_line(0x368)
	.dwattr $C$DW$129, DW_AT_TI_end_column(0x01)
	.dwendentry
	.dwendtag $C$DW$129

	.sect	".text:set_soft_limits_enable"
	.clink

$C$DW$134	.dwtag  DW_TAG_subprogram
	.dwattr $C$DW$134, DW_AT_name("set_soft_limits_enable")
	.dwattr $C$DW$134, DW_AT_low_pc(set_soft_limits_enable)
	.dwattr $C$DW$134, DW_AT_high_pc(0x00)
	.dwattr $C$DW$134, DW_AT_TI_symbol_name("set_soft_limits_enable")
	.dwattr $C$DW$134, DW_AT_type(*$C$DW$T$132)
	.dwattr $C$DW$134, DW_AT_TI_begin_file("../grbl/settings.c")
	.dwattr $C$DW$134, DW_AT_TI_begin_line(0x336)
	.dwattr $C$DW$134, DW_AT_TI_begin_column(0x16)
	.dwattr $C$DW$134, DW_AT_decl_file("../grbl/settings.c")
	.dwattr $C$DW$134, DW_AT_decl_line(0x336)
	.dwattr $C$DW$134, DW_AT_decl_column(0x16)
	.dwattr $C$DW$134, DW_AT_TI_max_frame_size(0x04)
	.dwpsn	file "../grbl/settings.c",line 823,column 1,is_stmt,address set_soft_limits_enable,isa 0

	.dwfde $C$DW$CIE, set_soft_limits_enable
$C$DW$135	.dwtag  DW_TAG_formal_parameter
	.dwattr $C$DW$135, DW_AT_name("id")
	.dwattr $C$DW$135, DW_AT_TI_symbol_name("id")
	.dwattr $C$DW$135, DW_AT_type(*$C$DW$T$630)
	.dwattr $C$DW$135, DW_AT_location[DW_OP_reg12]

$C$DW$136	.dwtag  DW_TAG_formal_parameter
	.dwattr $C$DW$136, DW_AT_name("int_value")
	.dwattr $C$DW$136, DW_AT_TI_symbol_name("int_value")
	.dwattr $C$DW$136, DW_AT_type(*$C$DW$T$149)
	.dwattr $C$DW$136, DW_AT_location[DW_OP_reg13]


;*****************************************************************************
;* FUNCTION NAME: set_soft_limits_enable                                     *
;*                                                                           *
;*   Regs Modified     : SP,SR,r12,r14,r15                                   *
;*   Regs Used         : SP,SR,r12,r13,r14,r15                               *
;*   Local Frame Size  : 0 Args + 0 Auto + 0 Save = 0 byte                   *
;*****************************************************************************
set_soft_limits_enable:
;* --------------------------------------------------------------------------*
	.dwcfi	cfa_offset, 4
	.dwcfi	save_reg_to_mem, 16, -4
;* r13   assigned to int_value
$C$DW$137	.dwtag  DW_TAG_variable
	.dwattr $C$DW$137, DW_AT_name("int_value")
	.dwattr $C$DW$137, DW_AT_TI_symbol_name("int_value")
	.dwattr $C$DW$137, DW_AT_type(*$C$DW$T$149)
	.dwattr $C$DW$137, DW_AT_location[DW_OP_reg13]

	.dwpsn	file "../grbl/settings.c",line 824,column 5,is_stmt,isa 0
        TST.W     r13                   ; [] |824| 
        JEQ       $C$L41                ; [] |824| 
                                          ; [] |824| 
;* --------------------------------------------------------------------------*
        BIT.B     #1,&settings+256      ; [] |824| 
        JEQ       $C$L43                ; [] |824| 
                                          ; [] |824| 
;* --------------------------------------------------------------------------*
$C$L41:    
	.dwpsn	file "../grbl/settings.c",line 827,column 5,is_stmt,isa 0
        MOV.B     #0,r14                ; [] |827| 
        TST.W     r13                   ; [] |827| 
        JEQ       $C$L42                ; [] |827| 
                                          ; [] |827| 
;* --------------------------------------------------------------------------*
        MOV.B     #1,r14                ; [] |827| 
;* --------------------------------------------------------------------------*
$C$L42:    
        MOVA      r14,r15               ; [] |827| 
        MOV.B     &settings+272,r14     ; [] |827| 
        BIC.B     #2,r14                ; [] |827| 
        AND.B     #1,r15                ; [] |827| 
        RLA.B     r15                   ; [] |827| 
        OR.B      r15,r14               ; [] |827| 
        MOV.B     r14,&settings+272     ; [] |827| 
	.dwpsn	file "../grbl/settings.c",line 829,column 5,is_stmt,isa 0
        MOV.W     #0,r12                ; [] |829| 
        JMP       $C$L44                ; [] |829| 
                                          ; [] |829| 
;* --------------------------------------------------------------------------*
$C$L43:    
	.dwpsn	file "../grbl/settings.c",line 825,column 9,is_stmt,isa 0
        MOV.W     #10,r12               ; [] |825| 
;* --------------------------------------------------------------------------*
$C$L44:    
	.dwpsn	file "../grbl/settings.c",line 830,column 1,is_stmt,isa 0
$C$DW$138	.dwtag  DW_TAG_TI_branch
	.dwattr $C$DW$138, DW_AT_low_pc(0x00)
	.dwattr $C$DW$138, DW_AT_TI_return

        RETA      ; [] 
        ; [] 
	.dwattr $C$DW$134, DW_AT_TI_end_file("../grbl/settings.c")
	.dwattr $C$DW$134, DW_AT_TI_end_line(0x33e)
	.dwattr $C$DW$134, DW_AT_TI_end_column(0x01)
	.dwendentry
	.dwendtag $C$DW$134

	.sect	".text:set_probe_disable_pullup"
	.clink

$C$DW$139	.dwtag  DW_TAG_subprogram
	.dwattr $C$DW$139, DW_AT_name("set_probe_disable_pullup")
	.dwattr $C$DW$139, DW_AT_low_pc(set_probe_disable_pullup)
	.dwattr $C$DW$139, DW_AT_high_pc(0x00)
	.dwattr $C$DW$139, DW_AT_TI_symbol_name("set_probe_disable_pullup")
	.dwattr $C$DW$139, DW_AT_type(*$C$DW$T$132)
	.dwattr $C$DW$139, DW_AT_TI_begin_file("../grbl/settings.c")
	.dwattr $C$DW$139, DW_AT_TI_begin_line(0x32c)
	.dwattr $C$DW$139, DW_AT_TI_begin_column(0x16)
	.dwattr $C$DW$139, DW_AT_decl_file("../grbl/settings.c")
	.dwattr $C$DW$139, DW_AT_decl_line(0x32c)
	.dwattr $C$DW$139, DW_AT_decl_column(0x16)
	.dwattr $C$DW$139, DW_AT_TI_max_frame_size(0x04)
	.dwpsn	file "../grbl/settings.c",line 813,column 1,is_stmt,address set_probe_disable_pullup,isa 0

	.dwfde $C$DW$CIE, set_probe_disable_pullup
$C$DW$140	.dwtag  DW_TAG_formal_parameter
	.dwattr $C$DW$140, DW_AT_name("id")
	.dwattr $C$DW$140, DW_AT_TI_symbol_name("id")
	.dwattr $C$DW$140, DW_AT_type(*$C$DW$T$630)
	.dwattr $C$DW$140, DW_AT_location[DW_OP_reg12]

$C$DW$141	.dwtag  DW_TAG_formal_parameter
	.dwattr $C$DW$141, DW_AT_name("int_value")
	.dwattr $C$DW$141, DW_AT_TI_symbol_name("int_value")
	.dwattr $C$DW$141, DW_AT_type(*$C$DW$T$149)
	.dwattr $C$DW$141, DW_AT_location[DW_OP_reg13]


;*****************************************************************************
;* FUNCTION NAME: set_probe_disable_pullup                                   *
;*                                                                           *
;*   Regs Modified     : SP,SR,r12,r14,r15                                   *
;*   Regs Used         : SP,SR,r12,r13,r14,r15                               *
;*   Local Frame Size  : 0 Args + 0 Auto + 0 Save = 0 byte                   *
;*****************************************************************************
set_probe_disable_pullup:
;* --------------------------------------------------------------------------*
	.dwcfi	cfa_offset, 4
	.dwcfi	save_reg_to_mem, 16, -4
;* r13   assigned to int_value
$C$DW$142	.dwtag  DW_TAG_variable
	.dwattr $C$DW$142, DW_AT_name("int_value")
	.dwattr $C$DW$142, DW_AT_TI_symbol_name("int_value")
	.dwattr $C$DW$142, DW_AT_type(*$C$DW$T$149)
	.dwattr $C$DW$142, DW_AT_location[DW_OP_reg13]

	.dwpsn	file "../grbl/settings.c",line 814,column 5,is_stmt,isa 0
        TSTX.A    &hal+242              ; [] |814| 
        JEQ       $C$L46                ; [] |814| 
                                          ; [] |814| 
;* --------------------------------------------------------------------------*
	.dwpsn	file "../grbl/settings.c",line 817,column 5,is_stmt,isa 0
        MOV.B     #0,r14                ; [] |817| 
        TST.W     r13                   ; [] |817| 
        JEQ       $C$L45                ; [] |817| 
                                          ; [] |817| 
;* --------------------------------------------------------------------------*
        MOV.B     #1,r14                ; [] |817| 
;* --------------------------------------------------------------------------*
$C$L45:    
        MOVA      r14,r15               ; [] |817| 
        MOV.B     &settings+238,r14     ; [] |817| 
        BIC.B     #2,r14                ; [] |817| 
        AND.B     #1,r15                ; [] |817| 
        RLA.B     r15                   ; [] |817| 
        OR.B      r15,r14               ; [] |817| 
        MOV.B     r14,&settings+238     ; [] |817| 
	.dwpsn	file "../grbl/settings.c",line 819,column 5,is_stmt,isa 0
        MOV.W     #0,r12                ; [] |819| 
        JMP       $C$L47                ; [] |819| 
                                          ; [] |819| 
;* --------------------------------------------------------------------------*
$C$L46:    
	.dwpsn	file "../grbl/settings.c",line 815,column 9,is_stmt,isa 0
        MOV.W     #53,r12               ; [] |815| 
;* --------------------------------------------------------------------------*
$C$L47:    
	.dwpsn	file "../grbl/settings.c",line 820,column 1,is_stmt,isa 0
$C$DW$143	.dwtag  DW_TAG_TI_branch
	.dwattr $C$DW$143, DW_AT_low_pc(0x00)
	.dwattr $C$DW$143, DW_AT_TI_return

        RETA      ; [] 
        ; [] 
	.dwattr $C$DW$139, DW_AT_TI_end_file("../grbl/settings.c")
	.dwattr $C$DW$139, DW_AT_TI_end_line(0x334)
	.dwattr $C$DW$139, DW_AT_TI_end_column(0x01)
	.dwendentry
	.dwendtag $C$DW$139

	.sect	".text:set_control_disable_pullup"
	.clink

$C$DW$144	.dwtag  DW_TAG_subprogram
	.dwattr $C$DW$144, DW_AT_name("set_control_disable_pullup")
	.dwattr $C$DW$144, DW_AT_low_pc(set_control_disable_pullup)
	.dwattr $C$DW$144, DW_AT_high_pc(0x00)
	.dwattr $C$DW$144, DW_AT_TI_symbol_name("set_control_disable_pullup")
	.dwattr $C$DW$144, DW_AT_type(*$C$DW$T$132)
	.dwattr $C$DW$144, DW_AT_TI_begin_file("../grbl/settings.c")
	.dwattr $C$DW$144, DW_AT_TI_begin_line(0x325)
	.dwattr $C$DW$144, DW_AT_TI_begin_column(0x16)
	.dwattr $C$DW$144, DW_AT_decl_file("../grbl/settings.c")
	.dwattr $C$DW$144, DW_AT_decl_line(0x325)
	.dwattr $C$DW$144, DW_AT_decl_column(0x16)
	.dwattr $C$DW$144, DW_AT_TI_max_frame_size(0x04)
	.dwpsn	file "../grbl/settings.c",line 806,column 1,is_stmt,address set_control_disable_pullup,isa 0

	.dwfde $C$DW$CIE, set_control_disable_pullup
$C$DW$145	.dwtag  DW_TAG_formal_parameter
	.dwattr $C$DW$145, DW_AT_name("id")
	.dwattr $C$DW$145, DW_AT_TI_symbol_name("id")
	.dwattr $C$DW$145, DW_AT_type(*$C$DW$T$630)
	.dwattr $C$DW$145, DW_AT_location[DW_OP_reg12]

$C$DW$146	.dwtag  DW_TAG_formal_parameter
	.dwattr $C$DW$146, DW_AT_name("int_value")
	.dwattr $C$DW$146, DW_AT_TI_symbol_name("int_value")
	.dwattr $C$DW$146, DW_AT_type(*$C$DW$T$149)
	.dwattr $C$DW$146, DW_AT_location[DW_OP_reg13]


;*****************************************************************************
;* FUNCTION NAME: set_control_disable_pullup                                 *
;*                                                                           *
;*   Regs Modified     : SP,SR,r12,r13                                       *
;*   Regs Used         : SP,SR,r12,r13                                       *
;*   Local Frame Size  : 0 Args + 0 Auto + 0 Save = 0 byte                   *
;*****************************************************************************
set_control_disable_pullup:
;* --------------------------------------------------------------------------*
	.dwcfi	cfa_offset, 4
	.dwcfi	save_reg_to_mem, 16, -4
	.dwpsn	file "../grbl/settings.c",line 807,column 5,is_stmt,isa 0
        AND.W     &hal+402,r13          ; [] |807| 
        MOV.W     r13,&settings+98      ; [] |807| 
	.dwpsn	file "../grbl/settings.c",line 809,column 5,is_stmt,isa 0
        MOV.W     #0,r12                ; [] |809| 
	.dwpsn	file "../grbl/settings.c",line 810,column 1,is_stmt,isa 0
$C$DW$147	.dwtag  DW_TAG_TI_branch
	.dwattr $C$DW$147, DW_AT_low_pc(0x00)
	.dwattr $C$DW$147, DW_AT_TI_return

        RETA      ; [] 
        ; [] 
	.dwattr $C$DW$144, DW_AT_TI_end_file("../grbl/settings.c")
	.dwattr $C$DW$144, DW_AT_TI_end_line(0x32a)
	.dwattr $C$DW$144, DW_AT_TI_end_column(0x01)
	.dwendentry
	.dwendtag $C$DW$144

	.sect	".text:set_spindle_invert"
	.clink

$C$DW$148	.dwtag  DW_TAG_subprogram
	.dwattr $C$DW$148, DW_AT_name("set_spindle_invert")
	.dwattr $C$DW$148, DW_AT_low_pc(set_spindle_invert)
	.dwattr $C$DW$148, DW_AT_high_pc(0x00)
	.dwattr $C$DW$148, DW_AT_TI_symbol_name("set_spindle_invert")
	.dwattr $C$DW$148, DW_AT_type(*$C$DW$T$132)
	.dwattr $C$DW$148, DW_AT_TI_begin_file("../grbl/settings.c")
	.dwattr $C$DW$148, DW_AT_TI_begin_line(0x31a)
	.dwattr $C$DW$148, DW_AT_TI_begin_column(0x16)
	.dwattr $C$DW$148, DW_AT_decl_file("../grbl/settings.c")
	.dwattr $C$DW$148, DW_AT_decl_line(0x31a)
	.dwattr $C$DW$148, DW_AT_decl_column(0x16)
	.dwattr $C$DW$148, DW_AT_TI_max_frame_size(0x04)
	.dwpsn	file "../grbl/settings.c",line 795,column 1,is_stmt,address set_spindle_invert,isa 0

	.dwfde $C$DW$CIE, set_spindle_invert
$C$DW$149	.dwtag  DW_TAG_formal_parameter
	.dwattr $C$DW$149, DW_AT_name("id")
	.dwattr $C$DW$149, DW_AT_TI_symbol_name("id")
	.dwattr $C$DW$149, DW_AT_type(*$C$DW$T$630)
	.dwattr $C$DW$149, DW_AT_location[DW_OP_reg12]

$C$DW$150	.dwtag  DW_TAG_formal_parameter
	.dwattr $C$DW$150, DW_AT_name("int_value")
	.dwattr $C$DW$150, DW_AT_TI_symbol_name("int_value")
	.dwattr $C$DW$150, DW_AT_type(*$C$DW$T$149)
	.dwattr $C$DW$150, DW_AT_location[DW_OP_reg13]


;*****************************************************************************
;* FUNCTION NAME: set_spindle_invert                                         *
;*                                                                           *
;*   Regs Modified     : SP,SR,r12,r15                                       *
;*   Regs Used         : SP,SR,r12,r13,r15                                   *
;*   Local Frame Size  : 0 Args + 0 Auto + 0 Save = 0 byte                   *
;*****************************************************************************
set_spindle_invert:
;* --------------------------------------------------------------------------*
	.dwcfi	cfa_offset, 4
	.dwcfi	save_reg_to_mem, 16, -4
;* r13   assigned to int_value
$C$DW$151	.dwtag  DW_TAG_variable
	.dwattr $C$DW$151, DW_AT_name("int_value")
	.dwattr $C$DW$151, DW_AT_TI_symbol_name("int_value")
	.dwattr $C$DW$151, DW_AT_type(*$C$DW$T$149)
	.dwattr $C$DW$151, DW_AT_location[DW_OP_reg13]

	.dwpsn	file "../grbl/settings.c",line 796,column 5,is_stmt,isa 0
        MOV.B     r13,&settings+216     ; [] |796| 
	.dwpsn	file "../grbl/settings.c",line 797,column 5,is_stmt,isa 0
        MOV.B     &settings+216,r15     ; [] |797| 
        RRUM.W    #2,r15                ; [] |797| 
        AND.W     #1,r15                ; [] |797| 
        CMP.W     #1,r15                ; [] |797| 
        JNE       $C$L48                ; [] |797| 
                                          ; [] |797| 
;* --------------------------------------------------------------------------*
        MOV.B     &hal+400,r15          ; [] |797| 
        RRUM.W    #1,r15                ; [] |797| 
        AND.W     #1,r15                ; [] |797| 
        TST.W     r15                   ; [] |797| 
        JEQ       $C$L49                ; [] |797| 
                                          ; [] |797| 
;* --------------------------------------------------------------------------*
$C$L48:    
	.dwpsn	file "../grbl/settings.c",line 802,column 5,is_stmt,isa 0
        MOV.W     #0,r12                ; [] |802| 
        JMP       $C$L50                ; [] |802| 
                                          ; [] |802| 
;* --------------------------------------------------------------------------*
$C$L49:    
	.dwpsn	file "../grbl/settings.c",line 798,column 9,is_stmt,isa 0
        BIC.B     #4,&settings+216      ; [] |798| 
	.dwpsn	file "../grbl/settings.c",line 799,column 9,is_stmt,isa 0
        MOV.W     #53,r12               ; [] |799| 
;* --------------------------------------------------------------------------*
$C$L50:    
	.dwpsn	file "../grbl/settings.c",line 803,column 1,is_stmt,isa 0
$C$DW$152	.dwtag  DW_TAG_TI_branch
	.dwattr $C$DW$152, DW_AT_low_pc(0x00)
	.dwattr $C$DW$152, DW_AT_TI_return

        RETA      ; [] 
        ; [] 
	.dwattr $C$DW$148, DW_AT_TI_end_file("../grbl/settings.c")
	.dwattr $C$DW$148, DW_AT_TI_end_line(0x323)
	.dwattr $C$DW$148, DW_AT_TI_end_column(0x01)
	.dwendentry
	.dwendtag $C$DW$148

	.sect	".text:set_control_invert"
	.clink

$C$DW$153	.dwtag  DW_TAG_subprogram
	.dwattr $C$DW$153, DW_AT_name("set_control_invert")
	.dwattr $C$DW$153, DW_AT_low_pc(set_control_invert)
	.dwattr $C$DW$153, DW_AT_high_pc(0x00)
	.dwattr $C$DW$153, DW_AT_TI_symbol_name("set_control_invert")
	.dwattr $C$DW$153, DW_AT_type(*$C$DW$T$132)
	.dwattr $C$DW$153, DW_AT_TI_begin_file("../grbl/settings.c")
	.dwattr $C$DW$153, DW_AT_TI_begin_line(0x313)
	.dwattr $C$DW$153, DW_AT_TI_begin_column(0x16)
	.dwattr $C$DW$153, DW_AT_decl_file("../grbl/settings.c")
	.dwattr $C$DW$153, DW_AT_decl_line(0x313)
	.dwattr $C$DW$153, DW_AT_decl_column(0x16)
	.dwattr $C$DW$153, DW_AT_TI_max_frame_size(0x04)
	.dwpsn	file "../grbl/settings.c",line 788,column 1,is_stmt,address set_control_invert,isa 0

	.dwfde $C$DW$CIE, set_control_invert
$C$DW$154	.dwtag  DW_TAG_formal_parameter
	.dwattr $C$DW$154, DW_AT_name("id")
	.dwattr $C$DW$154, DW_AT_TI_symbol_name("id")
	.dwattr $C$DW$154, DW_AT_type(*$C$DW$T$630)
	.dwattr $C$DW$154, DW_AT_location[DW_OP_reg12]

$C$DW$155	.dwtag  DW_TAG_formal_parameter
	.dwattr $C$DW$155, DW_AT_name("int_value")
	.dwattr $C$DW$155, DW_AT_TI_symbol_name("int_value")
	.dwattr $C$DW$155, DW_AT_type(*$C$DW$T$149)
	.dwattr $C$DW$155, DW_AT_location[DW_OP_reg13]


;*****************************************************************************
;* FUNCTION NAME: set_control_invert                                         *
;*                                                                           *
;*   Regs Modified     : SP,SR,r12,r13                                       *
;*   Regs Used         : SP,SR,r12,r13                                       *
;*   Local Frame Size  : 0 Args + 0 Auto + 0 Save = 0 byte                   *
;*****************************************************************************
set_control_invert:
;* --------------------------------------------------------------------------*
	.dwcfi	cfa_offset, 4
	.dwcfi	save_reg_to_mem, 16, -4
	.dwpsn	file "../grbl/settings.c",line 789,column 5,is_stmt,isa 0
        AND.W     &hal+402,r13          ; [] |789| 
        MOV.W     r13,&settings+96      ; [] |789| 
	.dwpsn	file "../grbl/settings.c",line 791,column 5,is_stmt,isa 0
        MOV.W     #0,r12                ; [] |791| 
	.dwpsn	file "../grbl/settings.c",line 792,column 1,is_stmt,isa 0
$C$DW$156	.dwtag  DW_TAG_TI_branch
	.dwattr $C$DW$156, DW_AT_low_pc(0x00)
	.dwattr $C$DW$156, DW_AT_TI_return

        RETA      ; [] 
        ; [] 
	.dwattr $C$DW$153, DW_AT_TI_end_file("../grbl/settings.c")
	.dwattr $C$DW$153, DW_AT_TI_end_line(0x318)
	.dwattr $C$DW$153, DW_AT_TI_end_column(0x01)
	.dwendentry
	.dwendtag $C$DW$153

	.sect	".text:set_report_inches"
	.clink

$C$DW$157	.dwtag  DW_TAG_subprogram
	.dwattr $C$DW$157, DW_AT_name("set_report_inches")
	.dwattr $C$DW$157, DW_AT_low_pc(set_report_inches)
	.dwattr $C$DW$157, DW_AT_high_pc(0x00)
	.dwattr $C$DW$157, DW_AT_TI_symbol_name("set_report_inches")
	.dwattr $C$DW$157, DW_AT_type(*$C$DW$T$132)
	.dwattr $C$DW$157, DW_AT_TI_begin_file("../grbl/settings.c")
	.dwattr $C$DW$157, DW_AT_TI_begin_line(0x30a)
	.dwattr $C$DW$157, DW_AT_TI_begin_column(0x16)
	.dwattr $C$DW$157, DW_AT_decl_file("../grbl/settings.c")
	.dwattr $C$DW$157, DW_AT_decl_line(0x30a)
	.dwattr $C$DW$157, DW_AT_decl_column(0x16)
	.dwattr $C$DW$157, DW_AT_TI_max_frame_size(0x04)
	.dwpsn	file "../grbl/settings.c",line 779,column 1,is_stmt,address set_report_inches,isa 0

	.dwfde $C$DW$CIE, set_report_inches
$C$DW$158	.dwtag  DW_TAG_formal_parameter
	.dwattr $C$DW$158, DW_AT_name("id")
	.dwattr $C$DW$158, DW_AT_TI_symbol_name("id")
	.dwattr $C$DW$158, DW_AT_type(*$C$DW$T$630)
	.dwattr $C$DW$158, DW_AT_location[DW_OP_reg12]

$C$DW$159	.dwtag  DW_TAG_formal_parameter
	.dwattr $C$DW$159, DW_AT_name("int_value")
	.dwattr $C$DW$159, DW_AT_TI_symbol_name("int_value")
	.dwattr $C$DW$159, DW_AT_type(*$C$DW$T$149)
	.dwattr $C$DW$159, DW_AT_location[DW_OP_reg13]


;*****************************************************************************
;* FUNCTION NAME: set_report_inches                                          *
;*                                                                           *
;*   Regs Modified     : SP,SR,r11,r12,r13,r14,r15                           *
;*   Regs Used         : SP,SR,r11,r12,r13,r14,r15                           *
;*   Local Frame Size  : 0 Args + 0 Auto + 0 Save = 0 byte                   *
;*****************************************************************************
set_report_inches:
;* --------------------------------------------------------------------------*
	.dwcfi	cfa_offset, 4
	.dwcfi	save_reg_to_mem, 16, -4
;* r13   assigned to int_value
$C$DW$160	.dwtag  DW_TAG_variable
	.dwattr $C$DW$160, DW_AT_name("int_value")
	.dwattr $C$DW$160, DW_AT_TI_symbol_name("int_value")
	.dwattr $C$DW$160, DW_AT_type(*$C$DW$T$149)
	.dwattr $C$DW$160, DW_AT_location[DW_OP_reg13]

	.dwpsn	file "../grbl/settings.c",line 780,column 5,is_stmt,isa 0
        MOV.W     #0,r14                ; [] |780| 
        TST.W     r13                   ; [] |780| 
        JEQ       $C$L51                ; [] |780| 
                                          ; [] |780| 
;* --------------------------------------------------------------------------*
        MOV.W     #1,r14                ; [] |780| 
;* --------------------------------------------------------------------------*
$C$L51:    
        MOV.B     &settings+236,r15     ; [] |780| 
        BIC.B     #1,r15                ; [] |780| 
        AND.B     #1,r14                ; [] |780| 
        OR.B      r15,r14               ; [] |780| 
        MOV.B     r14,&settings+236     ; [] |780| 
	.dwpsn	file "../grbl/settings.c",line 781,column 5,is_stmt,isa 0
$C$DW$161	.dwtag  DW_TAG_TI_branch
	.dwattr $C$DW$161, DW_AT_low_pc(0x00)
	.dwattr $C$DW$161, DW_AT_name("report_init")
	.dwattr $C$DW$161, DW_AT_TI_call

        CALLA     #report_init          ; [] |781| 
                                          ; [] |781| 
	.dwpsn	file "../grbl/settings.c",line 782,column 5,is_stmt,isa 0
$C$DW$162	.dwtag  DW_TAG_TI_branch
	.dwattr $C$DW$162, DW_AT_low_pc(0x00)
	.dwattr $C$DW$162, DW_AT_name("system_flag_wco_change")
	.dwattr $C$DW$162, DW_AT_TI_call

        CALLA     #system_flag_wco_change ; [] |782| 
                                          ; [] |782| 
	.dwpsn	file "../grbl/settings.c",line 784,column 5,is_stmt,isa 0
        MOV.W     #0,r12                ; [] |784| 
	.dwpsn	file "../grbl/settings.c",line 785,column 1,is_stmt,isa 0
$C$DW$163	.dwtag  DW_TAG_TI_branch
	.dwattr $C$DW$163, DW_AT_low_pc(0x00)
	.dwattr $C$DW$163, DW_AT_TI_return

        RETA      ; [] 
        ; [] 
	.dwattr $C$DW$157, DW_AT_TI_end_file("../grbl/settings.c")
	.dwattr $C$DW$157, DW_AT_TI_end_line(0x311)
	.dwattr $C$DW$157, DW_AT_TI_end_column(0x01)
	.dwendentry
	.dwendtag $C$DW$157

	.sect	".text:set_report_mask"
	.clink

$C$DW$164	.dwtag  DW_TAG_subprogram
	.dwattr $C$DW$164, DW_AT_name("set_report_mask")
	.dwattr $C$DW$164, DW_AT_low_pc(set_report_mask)
	.dwattr $C$DW$164, DW_AT_high_pc(0x00)
	.dwattr $C$DW$164, DW_AT_TI_symbol_name("set_report_mask")
	.dwattr $C$DW$164, DW_AT_type(*$C$DW$T$132)
	.dwattr $C$DW$164, DW_AT_TI_begin_file("../grbl/settings.c")
	.dwattr $C$DW$164, DW_AT_TI_begin_line(0x2fe)
	.dwattr $C$DW$164, DW_AT_TI_begin_column(0x16)
	.dwattr $C$DW$164, DW_AT_decl_file("../grbl/settings.c")
	.dwattr $C$DW$164, DW_AT_decl_line(0x2fe)
	.dwattr $C$DW$164, DW_AT_decl_column(0x16)
	.dwattr $C$DW$164, DW_AT_TI_max_frame_size(0x04)
	.dwpsn	file "../grbl/settings.c",line 767,column 1,is_stmt,address set_report_mask,isa 0

	.dwfde $C$DW$CIE, set_report_mask
$C$DW$165	.dwtag  DW_TAG_formal_parameter
	.dwattr $C$DW$165, DW_AT_name("id")
	.dwattr $C$DW$165, DW_AT_TI_symbol_name("id")
	.dwattr $C$DW$165, DW_AT_type(*$C$DW$T$630)
	.dwattr $C$DW$165, DW_AT_location[DW_OP_reg12]

$C$DW$166	.dwtag  DW_TAG_formal_parameter
	.dwattr $C$DW$166, DW_AT_name("int_value")
	.dwattr $C$DW$166, DW_AT_TI_symbol_name("int_value")
	.dwattr $C$DW$166, DW_AT_type(*$C$DW$T$149)
	.dwattr $C$DW$166, DW_AT_location[DW_OP_reg13]


;*****************************************************************************
;* FUNCTION NAME: set_report_mask                                            *
;*                                                                           *
;*   Regs Modified     : SP,r12                                              *
;*   Regs Used         : SP,r12,r13                                          *
;*   Local Frame Size  : 0 Args + 0 Auto + 0 Save = 0 byte                   *
;*****************************************************************************
set_report_mask:
;* --------------------------------------------------------------------------*
	.dwcfi	cfa_offset, 4
	.dwcfi	save_reg_to_mem, 16, -4
;* r13   assigned to int_value
$C$DW$167	.dwtag  DW_TAG_variable
	.dwattr $C$DW$167, DW_AT_name("int_value")
	.dwattr $C$DW$167, DW_AT_TI_symbol_name("int_value")
	.dwattr $C$DW$167, DW_AT_type(*$C$DW$T$149)
	.dwattr $C$DW$167, DW_AT_location[DW_OP_reg13]

	.dwpsn	file "../grbl/settings.c",line 769,column 5,is_stmt,isa 0
        MOV.W     r13,&settings+234     ; [] |769| 
	.dwpsn	file "../grbl/settings.c",line 775,column 5,is_stmt,isa 0
        MOV.W     #0,r12                ; [] |775| 
	.dwpsn	file "../grbl/settings.c",line 776,column 1,is_stmt,isa 0
$C$DW$168	.dwtag  DW_TAG_TI_branch
	.dwattr $C$DW$168, DW_AT_low_pc(0x00)
	.dwattr $C$DW$168, DW_AT_TI_return

        RETA      ; [] 
        ; [] 
	.dwattr $C$DW$164, DW_AT_TI_end_file("../grbl/settings.c")
	.dwattr $C$DW$164, DW_AT_TI_end_line(0x308)
	.dwattr $C$DW$164, DW_AT_TI_end_column(0x01)
	.dwendentry
	.dwendtag $C$DW$164

	.sect	".text:get_int"
	.clink

$C$DW$169	.dwtag  DW_TAG_subprogram
	.dwattr $C$DW$169, DW_AT_name("get_int")
	.dwattr $C$DW$169, DW_AT_low_pc(get_int)
	.dwattr $C$DW$169, DW_AT_high_pc(0x00)
	.dwattr $C$DW$169, DW_AT_TI_symbol_name("get_int")
	.dwattr $C$DW$169, DW_AT_type(*$C$DW$T$74)
	.dwattr $C$DW$169, DW_AT_TI_begin_file("../grbl/settings.c")
	.dwattr $C$DW$169, DW_AT_TI_begin_line(0x4a3)
	.dwattr $C$DW$169, DW_AT_TI_begin_column(0x11)
	.dwattr $C$DW$169, DW_AT_decl_file("../grbl/settings.c")
	.dwattr $C$DW$169, DW_AT_decl_line(0x4a3)
	.dwattr $C$DW$169, DW_AT_decl_column(0x11)
	.dwattr $C$DW$169, DW_AT_TI_max_frame_size(0x18)
	.dwpsn	file "../grbl/settings.c",line 1188,column 1,is_stmt,address get_int,isa 0

	.dwfde $C$DW$CIE, get_int
$C$DW$170	.dwtag  DW_TAG_formal_parameter
	.dwattr $C$DW$170, DW_AT_name("id")
	.dwattr $C$DW$170, DW_AT_TI_symbol_name("id")
	.dwattr $C$DW$170, DW_AT_type(*$C$DW$T$630)
	.dwattr $C$DW$170, DW_AT_location[DW_OP_reg12]


;*****************************************************************************
;* FUNCTION NAME: get_int                                                    *
;*                                                                           *
;*   Regs Modified     : SP,SR,r6,r7,r8,r9,r10,r11,r12,r13,r14,r15           *
;*   Regs Used         : SP,SR,r6,r7,r8,r9,r10,r11,r12,r13,r14,r15           *
;*   Local Frame Size  : 0 Args + 0 Auto + 20 Save = 20 byte                 *
;*****************************************************************************
get_int:
;* --------------------------------------------------------------------------*
	.dwcfi	cfa_offset, 4
	.dwcfi	save_reg_to_mem, 16, -4
        PUSHM.A   #5,r10                ; [] 
	.dwcfi	save_reg_to_mem, 10, -8
	.dwcfi	save_reg_to_mem, 9, -12
	.dwcfi	save_reg_to_mem, 8, -16
	.dwcfi	save_reg_to_mem, 7, -20
	.dwcfi	save_reg_to_mem, 6, -24
	.dwcfi	cfa_offset, 24
;* r12   assigned to $O$S1
;* r9    assigned to $O$S2
;* r10   assigned to $O$S3
;* r11   assigned to $O$S4
;* r12   assigned to $O$S5
;* r12   assigned to $O$S6
;* r15   assigned to id
$C$DW$171	.dwtag  DW_TAG_variable
	.dwattr $C$DW$171, DW_AT_name("id")
	.dwattr $C$DW$171, DW_AT_TI_symbol_name("id")
	.dwattr $C$DW$171, DW_AT_type(*$C$DW$T$630)
	.dwattr $C$DW$171, DW_AT_location[DW_OP_reg15]

;* r12   assigned to value
$C$DW$172	.dwtag  DW_TAG_variable
	.dwattr $C$DW$172, DW_AT_name("value")
	.dwattr $C$DW$172, DW_AT_TI_symbol_name("value")
	.dwattr $C$DW$172, DW_AT_type(*$C$DW$T$74)
	.dwattr $C$DW$172, DW_AT_location[DW_OP_reg12 DW_OP_piece 2 DW_OP_reg13 DW_OP_piece 2]

        MOVA      r12,r15               ; [] |1188| 
	.dwpsn	file "../grbl/settings.c",line 1189,column 20,is_stmt,isa 0
        MOV.W     #0,r12                ; [] |1189| 
        MOV.W     #0,r13                ; [] |1189| 
	.dwpsn	file "../grbl/settings.c",line 1191,column 5,is_stmt,isa 0
        CMP.W     #50,r15               ; [] |1191| 
        JGE       $C$L52                ; [] |1191| 
                                          ; [] |1191| 
;* --------------------------------------------------------------------------*
        CMP.W     #44,r15               ; [] |1191| 
        JGE       $C$L64                ; [] |1191| 
                                          ; [] |1191| 
;* --------------------------------------------------------------------------*
        SUB.W     #6,r15                ; [] |1191| 
        JEQ       $C$L85                ; [] |1191| 
                                          ; [] |1191| 
;* --------------------------------------------------------------------------*
        SUB.W     #2,r15                ; [] |1191| 
        JEQ       $C$L84                ; [] |1191| 
                                          ; [] |1191| 
;* --------------------------------------------------------------------------*
        SUB.W     #2,r15                ; [] |1191| 
        JEQ       $C$L83                ; [] |1191| 
                                          ; [] |1191| 
;* --------------------------------------------------------------------------*
        SUB.W     #3,r15                ; [] |1191| 
        CMP.W     #10,r15               ; [] |1191| 
        JLO       $C$L53                ; [] |1191| 
                                          ; [] |1191| 
;* --------------------------------------------------------------------------*
        SUB.W     #19,r15               ; [] |1191| 
        JEQ       $C$L68                ; [] |1191| 
                                          ; [] |1191| 
;* --------------------------------------------------------------------------*
        SUB.W     #7,r15                ; [] |1191| 
        JEQ       $C$L67                ; [] |1191| 
                                          ; [] |1191| 
;* --------------------------------------------------------------------------*
        SUB.W     #1,r15                ; [] |1191| 
        JEQ       $C$L66                ; [] |1191| 
                                          ; [] |1191| 
;* --------------------------------------------------------------------------*
        SUB.W     #1,r15                ; [] |1191| 
        JEQ       $C$L65                ; [] |1191| 
                                          ; [] |1191| 
;* --------------------------------------------------------------------------*
        JMP       $C$L86                ; [] |1191| 
                                          ; [] |1191| 
;* --------------------------------------------------------------------------*
$C$L52:    
        SUB.W     #60,r15               ; [] |1191| 
        JEQ       $C$L63                ; [] |1191| 
                                          ; [] |1191| 
;* --------------------------------------------------------------------------*
        SUB.W     #2,r15                ; [] |1191| 
        JEQ       $C$L62                ; [] |1191| 
                                          ; [] |1191| 
;* --------------------------------------------------------------------------*
        SUB.W     #1,r15                ; [] |1191| 
        JEQ       $C$L60                ; [] |1191| 
                                          ; [] |1191| 
;* --------------------------------------------------------------------------*
        SUB.W     #1,r15                ; [] |1191| 
        JEQ       $C$L59                ; [] |1191| 
                                          ; [] |1191| 
;* --------------------------------------------------------------------------*
        SUB.W     #1,r15                ; [] |1191| 
        JEQ       $C$L58                ; [] |1191| 
                                          ; [] |1191| 
;* --------------------------------------------------------------------------*
        SUB.W     #276,r15              ; [] |1191| 
        JEQ       $C$L57                ; [] |1191| 
                                          ; [] |1191| 
;* --------------------------------------------------------------------------*
        SUB.W     #43,r15               ; [] |1191| 
        JEQ       $C$L56                ; [] |1191| 
                                          ; [] |1191| 
;* --------------------------------------------------------------------------*
        JMP       $C$L86                ; [] |1191| 
                                          ; [] |1191| 
;* --------------------------------------------------------------------------*
$C$L53:    
        RLAM.W    #2,r15                ; [] |1191| 
        MOVX.A    $C$SW1+0(r15),PC      ; [] |1191| 
                                          ; [] |1191| 
$C$SW1:	.long	$C$L82	; 13
	.long	$C$L81	; 14
	.long	$C$L86	; 0
	.long	$C$L80	; 16
	.long	$C$L79	; 17
	.long	$C$L86	; 0
	.long	$C$L78	; 19
	.long	$C$L77	; 20
	.long	$C$L54	; 21
	.long	$C$L69	; 22
;* --------------------------------------------------------------------------*
$C$L54:    
	.dwpsn	file "../grbl/settings.c",line 1244,column 13,is_stmt,isa 0
        MOV.B     &settings+272,r15     ; [] |1244| 
        AND.W     #1,r15                ; [] |1244| 
        CMP.W     #1,r15                ; [] |1244| 
        JNE       $C$L86                ; [] |1244| 
                                          ; [] |1244| 
;* --------------------------------------------------------------------------*
        BIT.B     #4,&settings+272      ; [] |1244| 
        JEQ       $C$L55                ; [] |1244| 
                                          ; [] |1244| 
;* --------------------------------------------------------------------------*
        MOV.W     #2,r12                ; [] |1244| 
;* --------------------------------------------------------------------------*
$C$L55:    
        OR.W      #1,r12                ; [] |1244| 
        OR.W      #0,r13                ; [] |1244| 
        JMP       $C$L86                ; [] |1244| 
                                          ; [] |1244| 
;* --------------------------------------------------------------------------*
$C$L56:    
	.dwpsn	file "../grbl/settings.c",line 1301,column 13,is_stmt,isa 0
        MOV.B     &settings+237,r12     ; [] |1301| 
        RRUM.W    #1,r12                ; [] |1301| 
        AND.W     #1,r12                ; [] |1301| 
        MOV.W     #0,r13                ; [] |1301| 
	.dwpsn	file "../grbl/settings.c",line 1302,column 13,is_stmt,isa 0
        JMP       $C$L86                ; [] |1302| 
                                          ; [] |1302| 
;* --------------------------------------------------------------------------*
$C$L57:    
	.dwpsn	file "../grbl/settings.c",line 1297,column 13,is_stmt,isa 0
        MOV.W     &settings+34,r12      ; [] |1297| 
        MOV.W     #0,r13                ; [] |1297| 
	.dwpsn	file "../grbl/settings.c",line 1298,column 13,is_stmt,isa 0
        JMP       $C$L86                ; [] |1298| 
                                          ; [] |1298| 
;* --------------------------------------------------------------------------*
$C$L58:    
	.dwpsn	file "../grbl/settings.c",line 1293,column 13,is_stmt,isa 0
        MOV.B     &settings+238,r12     ; [] |1293| 
        RRUM.W    #4,r12                ; [] |1293| 
        AND.W     #1,r12                ; [] |1293| 
        MOV.W     #0,r13                ; [] |1293| 
	.dwpsn	file "../grbl/settings.c",line 1294,column 13,is_stmt,isa 0
        JMP       $C$L86                ; [] |1294| 
                                          ; [] |1294| 
;* --------------------------------------------------------------------------*
$C$L59:    
	.dwpsn	file "../grbl/settings.c",line 1289,column 13,is_stmt,isa 0
        MOV.B     &settings+236,r12     ; [] |1289| 
        RPT #5 || RRUX.W r12 ; [] |1289| 
        AND.W     #1,r12                ; [] |1289| 
        MOV.W     #0,r13                ; [] |1289| 
	.dwpsn	file "../grbl/settings.c",line 1290,column 13,is_stmt,isa 0
        JMP       $C$L86                ; [] |1290| 
                                          ; [] |1290| 
;* --------------------------------------------------------------------------*
$C$L60:    
	.dwpsn	file "../grbl/settings.c",line 1285,column 13,is_stmt,isa 0
        MOV.B     &settings+236,r15     ; [] |1285| 
        RPT #7 || RRUX.W r15 ; [] |1285| 
        BIT.W     #1,r15                ; [] |1285| 
        JEQ       $C$L61                ; [] |1285| 
                                          ; [] |1285| 
;* --------------------------------------------------------------------------*
        MOV.W     #2,r12                ; [] |1285| 
;* --------------------------------------------------------------------------*
$C$L61:    
        MOV.B     &settings+236,r15     ; [] |1285| 
        RRUM.W    #4,r15                ; [] |1285| 
        AND.W     #1,r15                ; [] |1285| 
        OR.W      r15,r12               ; [] |1285| 
	.dwpsn	file "../grbl/settings.c",line 1286,column 13,is_stmt,isa 0
        JMP       $C$L86                ; [] |1286| 
                                          ; [] |1286| 
;* --------------------------------------------------------------------------*
$C$L62:    
	.dwpsn	file "../grbl/settings.c",line 1281,column 13,is_stmt,isa 0
        MOV.B     &settings+236,r12     ; [] |1281| 
        RRUM.W    #3,r12                ; [] |1281| 
        AND.W     #1,r12                ; [] |1281| 
        MOV.W     #0,r13                ; [] |1281| 
	.dwpsn	file "../grbl/settings.c",line 1282,column 13,is_stmt,isa 0
        JMP       $C$L86                ; [] |1282| 
                                          ; [] |1282| 
;* --------------------------------------------------------------------------*
$C$L63:    
	.dwpsn	file "../grbl/settings.c",line 1277,column 13,is_stmt,isa 0
        MOV.B     &settings+236,r12     ; [] |1277| 
        RRUM.W    #1,r12                ; [] |1277| 
        AND.W     #1,r12                ; [] |1277| 
        MOV.W     #0,r13                ; [] |1277| 
	.dwpsn	file "../grbl/settings.c",line 1278,column 13,is_stmt,isa 0
        JMP       $C$L86                ; [] |1278| 
                                          ; [] |1278| 
;* --------------------------------------------------------------------------*
$C$L64:    
	.dwpsn	file "../grbl/settings.c",line 1273,column 13,is_stmt,isa 0
        MOVA      r15,r12               ; [] |1273| 
        SUB.W     #44,r12               ; [] |1273| 
        MOV.B     settings+257(r12),r12 ; [] |1273| 
        MOV.W     #0,r13                ; [] |1273| 
	.dwpsn	file "../grbl/settings.c",line 1274,column 13,is_stmt,isa 0
        JMP       $C$L86                ; [] |1274| 
                                          ; [] |1274| 
;* --------------------------------------------------------------------------*
$C$L65:    
	.dwpsn	file "../grbl/settings.c",line 1264,column 13,is_stmt,isa 0
        MOV.B     &settings+276,r12     ; [] |1264| 
        MOV.W     #0,r13                ; [] |1264| 
	.dwpsn	file "../grbl/settings.c",line 1265,column 13,is_stmt,isa 0
        JMP       $C$L86                ; [] |1265| 
                                          ; [] |1265| 
;* --------------------------------------------------------------------------*
$C$L66:    
	.dwpsn	file "../grbl/settings.c",line 1248,column 13,is_stmt,isa 0
        MOV.B     &settings+272,r12     ; [] |1248| 
        RRUM.W    #3,r12                ; [] |1248| 
        AND.W     #1,r12                ; [] |1248| 
        MOV.W     #0,r13                ; [] |1248| 
	.dwpsn	file "../grbl/settings.c",line 1249,column 13,is_stmt,isa 0
        JMP       $C$L86                ; [] |1249| 
                                          ; [] |1249| 
;* --------------------------------------------------------------------------*
$C$L67:    
	.dwpsn	file "../grbl/settings.c",line 1260,column 13,is_stmt,isa 0
        MOV.B     &settings+236,r12     ; [] |1260| 
        RPT #6 || RRUX.W r12 ; [] |1260| 
        AND.W     #1,r12                ; [] |1260| 
        MOV.W     #0,r13                ; [] |1260| 
	.dwpsn	file "../grbl/settings.c",line 1261,column 13,is_stmt,isa 0
        JMP       $C$L86                ; [] |1261| 
                                          ; [] |1261| 
;* --------------------------------------------------------------------------*
$C$L68:    
	.dwpsn	file "../grbl/settings.c",line 1200,column 13,is_stmt,isa 0
        MOV.W     &settings+16,r12      ; [] |1200| 
        MOV.W     #0,r13                ; [] |1200| 
	.dwpsn	file "../grbl/settings.c",line 1201,column 13,is_stmt,isa 0
        JMP       $C$L86                ; [] |1201| 
                                          ; [] |1201| 
;* --------------------------------------------------------------------------*
$C$L69:    
	.dwpsn	file "../grbl/settings.c",line 1252,column 13,is_stmt,isa 0
        BIT.B     #16,&settings+272     ; [] |1252| 
        JEQ       $C$L70                ; [] |1252| 
                                          ; [] |1252| 
;* --------------------------------------------------------------------------*
        MOV.W     #16,r9                ; [] |1252| 
        MOV.W     #0,r6                 ; [] |1252| 
        JMP       $C$L71                ; [] |1252| 
                                          ; [] |1252| 
;* --------------------------------------------------------------------------*
$C$L70:    
        MOV.W     #0,r9                 ; [] |1252| 
        MOV.W     #0,r6                 ; [] |1252| 
;* --------------------------------------------------------------------------*
$C$L71:    
        BIT.B     #16,&settings+256     ; [] |1252| 
        JEQ       $C$L72                ; [] |1252| 
                                          ; [] |1252| 
;* --------------------------------------------------------------------------*
        MOV.W     #32,r10               ; [] |1252| 
        MOV.W     #0,r7                 ; [] |1252| 
        JMP       $C$L73                ; [] |1252| 
                                          ; [] |1252| 
;* --------------------------------------------------------------------------*
$C$L72:    
        MOV.W     #0,r10                ; [] |1252| 
        MOV.W     #0,r7                 ; [] |1252| 
;* --------------------------------------------------------------------------*
$C$L73:    
        BIT.B     #32,&settings+256     ; [] |1252| 
        JEQ       $C$L74                ; [] |1252| 
                                          ; [] |1252| 
;* --------------------------------------------------------------------------*
        MOV.W     #64,r11               ; [] |1252| 
        MOV.W     #0,r8                 ; [] |1252| 
        JMP       $C$L75                ; [] |1252| 
                                          ; [] |1252| 
;* --------------------------------------------------------------------------*
$C$L74:    
        MOV.W     #0,r11                ; [] |1252| 
        MOV.W     #0,r8                 ; [] |1252| 
;* --------------------------------------------------------------------------*
$C$L75:    
        BIT.B     #64,&settings+256     ; [] |1252| 
        JEQ       $C$L76                ; [] |1252| 
                                          ; [] |1252| 
;* --------------------------------------------------------------------------*
        MOV.W     #128,r12              ; [] |1252| 
;* --------------------------------------------------------------------------*
$C$L76:    
        MOV.B     &settings+256,r15     ; [] |1252| 
        MOV.W     #0,r14                ; [] |1252| 
        AND.W     #15,r15               ; [] |1252| 
        OR.W      r9,r15                ; [] |1252| 
        OR.W      r6,r14                ; [] |1252| 
        OR.W      r10,r15               ; [] |1252| 
        OR.W      r7,r14                ; [] |1252| 
        OR.W      r11,r15               ; [] |1252| 
        OR.W      r8,r14                ; [] |1252| 
        OR.W      r15,r12               ; [] |1252| 
        OR.W      r14,r13               ; [] |1252| 
	.dwpsn	file "../grbl/settings.c",line 1257,column 13,is_stmt,isa 0
        JMP       $C$L86                ; [] |1257| 
                                          ; [] |1257| 
;* --------------------------------------------------------------------------*
$C$L77:    
	.dwpsn	file "../grbl/settings.c",line 1240,column 13,is_stmt,isa 0
        MOV.B     &settings+272,r12     ; [] |1240| 
        RRUM.W    #1,r12                ; [] |1240| 
        AND.W     #1,r12                ; [] |1240| 
        MOV.W     #0,r13                ; [] |1240| 
	.dwpsn	file "../grbl/settings.c",line 1241,column 13,is_stmt,isa 0
        JMP       $C$L86                ; [] |1241| 
                                          ; [] |1241| 
;* --------------------------------------------------------------------------*
$C$L78:    
	.dwpsn	file "../grbl/settings.c",line 1236,column 13,is_stmt,isa 0
        MOV.B     &settings+238,r12     ; [] |1236| 
        RRUM.W    #1,r12                ; [] |1236| 
        AND.W     #1,r12                ; [] |1236| 
        MOV.W     #0,r13                ; [] |1236| 
	.dwpsn	file "../grbl/settings.c",line 1237,column 13,is_stmt,isa 0
        JMP       $C$L86                ; [] |1237| 
                                          ; [] |1237| 
;* --------------------------------------------------------------------------*
$C$L79:    
	.dwpsn	file "../grbl/settings.c",line 1232,column 13,is_stmt,isa 0
        MOV.W     &hal+402,r12          ; [] |1232| 
        AND.W     &settings+98,r12      ; [] |1232| 
        MOV.W     #0,r13                ; [] |1232| 
	.dwpsn	file "../grbl/settings.c",line 1233,column 13,is_stmt,isa 0
        JMP       $C$L86                ; [] |1233| 
                                          ; [] |1233| 
;* --------------------------------------------------------------------------*
$C$L80:    
	.dwpsn	file "../grbl/settings.c",line 1228,column 13,is_stmt,isa 0
        MOV.B     &settings+216,r12     ; [] |1228| 
        MOV.W     #0,r13                ; [] |1228| 
	.dwpsn	file "../grbl/settings.c",line 1229,column 13,is_stmt,isa 0
        JMP       $C$L86                ; [] |1229| 
                                          ; [] |1229| 
;* --------------------------------------------------------------------------*
$C$L81:    
	.dwpsn	file "../grbl/settings.c",line 1224,column 13,is_stmt,isa 0
        MOV.W     &hal+402,r12          ; [] |1224| 
        AND.W     &settings+96,r12      ; [] |1224| 
        MOV.W     #0,r13                ; [] |1224| 
	.dwpsn	file "../grbl/settings.c",line 1225,column 13,is_stmt,isa 0
        JMP       $C$L86                ; [] |1225| 
                                          ; [] |1225| 
;* --------------------------------------------------------------------------*
$C$L82:    
	.dwpsn	file "../grbl/settings.c",line 1220,column 13,is_stmt,isa 0
        MOV.B     &settings+236,r12     ; [] |1220| 
        AND.W     #1,r12                ; [] |1220| 
        MOV.W     #0,r13                ; [] |1220| 
	.dwpsn	file "../grbl/settings.c",line 1221,column 13,is_stmt,isa 0
        JMP       $C$L86                ; [] |1221| 
                                          ; [] |1221| 
;* --------------------------------------------------------------------------*
$C$L83:    
	.dwpsn	file "../grbl/settings.c",line 1213,column 13,is_stmt,isa 0
        MOV.W     &settings+234,r12     ; [] |1213| 
        MOV.W     #0,r13                ; [] |1213| 
	.dwpsn	file "../grbl/settings.c",line 1217,column 13,is_stmt,isa 0
        JMP       $C$L86                ; [] |1217| 
                                          ; [] |1217| 
;* --------------------------------------------------------------------------*
$C$L84:    
	.dwpsn	file "../grbl/settings.c",line 1208,column 13,is_stmt,isa 0
        MOV.B     &settings+220,r12     ; [] |1208| 
        MOV.W     #0,r13                ; [] |1208| 
	.dwpsn	file "../grbl/settings.c",line 1209,column 13,is_stmt,isa 0
        JMP       $C$L86                ; [] |1209| 
                                          ; [] |1209| 
;* --------------------------------------------------------------------------*
$C$L85:    
	.dwpsn	file "../grbl/settings.c",line 1204,column 13,is_stmt,isa 0
        MOV.B     &settings+238,r12     ; [] |1204| 
        AND.W     #1,r12                ; [] |1204| 
        MOV.W     #0,r13                ; [] |1204| 
;* --------------------------------------------------------------------------*
$C$L86:    
	.dwpsn	file "../grbl/settings.c",line 1314,column 5,is_stmt,isa 0
	.dwpsn	file "../grbl/settings.c",line 1315,column 1,is_stmt,isa 0
        POPM.A    #5,r10                ; [] 
	.dwcfi	restore_reg, 6
	.dwcfi	restore_reg, 7
	.dwcfi	restore_reg, 8
	.dwcfi	restore_reg, 9
	.dwcfi	restore_reg, 10
	.dwcfi	cfa_offset, 4
$C$DW$173	.dwtag  DW_TAG_TI_branch
	.dwattr $C$DW$173, DW_AT_low_pc(0x00)
	.dwattr $C$DW$173, DW_AT_TI_return

        RETA      ; [] 
        ; [] 
	.dwattr $C$DW$169, DW_AT_TI_end_file("../grbl/settings.c")
	.dwattr $C$DW$169, DW_AT_TI_end_line(0x523)
	.dwattr $C$DW$169, DW_AT_TI_end_column(0x01)
	.dwendentry
	.dwendtag $C$DW$169

	.sect	".text:set_probe_invert"
	.clink

$C$DW$174	.dwtag  DW_TAG_subprogram
	.dwattr $C$DW$174, DW_AT_name("set_probe_invert")
	.dwattr $C$DW$174, DW_AT_low_pc(set_probe_invert)
	.dwattr $C$DW$174, DW_AT_high_pc(0x00)
	.dwattr $C$DW$174, DW_AT_TI_symbol_name("set_probe_invert")
	.dwattr $C$DW$174, DW_AT_type(*$C$DW$T$132)
	.dwattr $C$DW$174, DW_AT_TI_begin_file("../grbl/settings.c")
	.dwattr $C$DW$174, DW_AT_TI_begin_line(0x2e9)
	.dwattr $C$DW$174, DW_AT_TI_begin_column(0x16)
	.dwattr $C$DW$174, DW_AT_decl_file("../grbl/settings.c")
	.dwattr $C$DW$174, DW_AT_decl_line(0x2e9)
	.dwattr $C$DW$174, DW_AT_decl_column(0x16)
	.dwattr $C$DW$174, DW_AT_TI_max_frame_size(0x04)
	.dwpsn	file "../grbl/settings.c",line 746,column 1,is_stmt,address set_probe_invert,isa 0

	.dwfde $C$DW$CIE, set_probe_invert
$C$DW$175	.dwtag  DW_TAG_formal_parameter
	.dwattr $C$DW$175, DW_AT_name("id")
	.dwattr $C$DW$175, DW_AT_TI_symbol_name("id")
	.dwattr $C$DW$175, DW_AT_type(*$C$DW$T$630)
	.dwattr $C$DW$175, DW_AT_location[DW_OP_reg12]

$C$DW$176	.dwtag  DW_TAG_formal_parameter
	.dwattr $C$DW$176, DW_AT_name("int_value")
	.dwattr $C$DW$176, DW_AT_TI_symbol_name("int_value")
	.dwattr $C$DW$176, DW_AT_type(*$C$DW$T$149)
	.dwattr $C$DW$176, DW_AT_location[DW_OP_reg13]


;*****************************************************************************
;* FUNCTION NAME: set_probe_invert                                           *
;*                                                                           *
;*   Regs Modified     : SP,SR,r11,r12,r13,r14,r15                           *
;*   Regs Used         : SP,SR,r11,r12,r13,r14,r15                           *
;*   Local Frame Size  : 0 Args + 0 Auto + 0 Save = 0 byte                   *
;*****************************************************************************
set_probe_invert:
;* --------------------------------------------------------------------------*
	.dwcfi	cfa_offset, 4
	.dwcfi	save_reg_to_mem, 16, -4
;* r13   assigned to int_value
$C$DW$177	.dwtag  DW_TAG_variable
	.dwattr $C$DW$177, DW_AT_name("int_value")
	.dwattr $C$DW$177, DW_AT_TI_symbol_name("int_value")
	.dwattr $C$DW$177, DW_AT_type(*$C$DW$T$149)
	.dwattr $C$DW$177, DW_AT_location[DW_OP_reg13]

	.dwpsn	file "../grbl/settings.c",line 747,column 5,is_stmt,isa 0
        TSTX.A    &hal+242              ; [] |747| 
        JEQ       $C$L88                ; [] |747| 
                                          ; [] |747| 
;* --------------------------------------------------------------------------*
	.dwpsn	file "../grbl/settings.c",line 750,column 5,is_stmt,isa 0
        MOV.B     #0,r14                ; [] |750| 
        TST.W     r13                   ; [] |750| 
        JEQ       $C$L87                ; [] |750| 
                                          ; [] |750| 
;* --------------------------------------------------------------------------*
        MOV.B     #1,r14                ; [] |750| 
;* --------------------------------------------------------------------------*
$C$L87:    
        MOV.B     &settings+238,r15     ; [] |750| 
        BIC.B     #1,r15                ; [] |750| 
        AND.B     #1,r14                ; [] |750| 
        OR.B      r15,r14               ; [] |750| 
        MOV.B     r14,&settings+238     ; [] |750| 
	.dwpsn	file "../grbl/settings.c",line 751,column 5,is_stmt,isa 0
        MOV.B     #0,r12                ; [] |751| 
        MOV.B     #0,r13                ; [] |751| 
$C$DW$178	.dwtag  DW_TAG_TI_branch
	.dwattr $C$DW$178, DW_AT_low_pc(0x00)
	.dwattr $C$DW$178, DW_AT_TI_call
	.dwattr $C$DW$178, DW_AT_TI_indirect

        CALLA     &hal+242              ; [] |751| 
                                          ; [] |751| 
	.dwpsn	file "../grbl/settings.c",line 753,column 5,is_stmt,isa 0
        MOV.W     #0,r12                ; [] |753| 
        JMP       $C$L89                ; [] |753| 
                                          ; [] |753| 
;* --------------------------------------------------------------------------*
$C$L88:    
	.dwpsn	file "../grbl/settings.c",line 748,column 9,is_stmt,isa 0
        MOV.W     #53,r12               ; [] |748| 
;* --------------------------------------------------------------------------*
$C$L89:    
	.dwpsn	file "../grbl/settings.c",line 754,column 1,is_stmt,isa 0
$C$DW$179	.dwtag  DW_TAG_TI_branch
	.dwattr $C$DW$179, DW_AT_low_pc(0x00)
	.dwattr $C$DW$179, DW_AT_TI_return

        RETA      ; [] 
        ; [] 
	.dwattr $C$DW$174, DW_AT_TI_end_file("../grbl/settings.c")
	.dwattr $C$DW$174, DW_AT_TI_end_line(0x2f2)
	.dwattr $C$DW$174, DW_AT_TI_end_column(0x01)
	.dwendentry
	.dwendtag $C$DW$174

	.sect	".text:is_setting_available"
	.clink

$C$DW$180	.dwtag  DW_TAG_subprogram
	.dwattr $C$DW$180, DW_AT_name("is_setting_available")
	.dwattr $C$DW$180, DW_AT_low_pc(is_setting_available)
	.dwattr $C$DW$180, DW_AT_high_pc(0x00)
	.dwattr $C$DW$180, DW_AT_TI_symbol_name("is_setting_available")
	.dwattr $C$DW$180, DW_AT_type(*$C$DW$T$105)
	.dwattr $C$DW$180, DW_AT_TI_begin_file("../grbl/settings.c")
	.dwattr $C$DW$180, DW_AT_TI_begin_line(0x573)
	.dwattr $C$DW$180, DW_AT_TI_begin_column(0x0d)
	.dwattr $C$DW$180, DW_AT_decl_file("../grbl/settings.c")
	.dwattr $C$DW$180, DW_AT_decl_line(0x573)
	.dwattr $C$DW$180, DW_AT_decl_column(0x0d)
	.dwattr $C$DW$180, DW_AT_TI_max_frame_size(0x0e)
	.dwpsn	file "../grbl/settings.c",line 1396,column 1,is_stmt,address is_setting_available,isa 0

	.dwfde $C$DW$CIE, is_setting_available
$C$DW$181	.dwtag  DW_TAG_formal_parameter
	.dwattr $C$DW$181, DW_AT_name("setting")
	.dwattr $C$DW$181, DW_AT_TI_symbol_name("setting")
	.dwattr $C$DW$181, DW_AT_type(*$C$DW$T$147)
	.dwattr $C$DW$181, DW_AT_location[DW_OP_reg12]


;*****************************************************************************
;* FUNCTION NAME: is_setting_available                                       *
;*                                                                           *
;*   Regs Modified     : SP,SR,r9,r10,r11,r12,r13,r14,r15                    *
;*   Regs Used         : SP,SR,r9,r10,r11,r12,r13,r14,r15                    *
;*   Local Frame Size  : 0 Args + 2 Auto + 8 Save = 10 byte                  *
;*****************************************************************************
is_setting_available:
;* --------------------------------------------------------------------------*
	.dwcfi	cfa_offset, 4
	.dwcfi	save_reg_to_mem, 16, -4
        PUSHM.A   #2,r10                ; [] 
	.dwcfi	save_reg_to_mem, 10, -8
	.dwcfi	save_reg_to_mem, 9, -12
	.dwcfi	cfa_offset, 12
        SUBA      #2,SP                 ; [] 
	.dwcfi	cfa_offset, 14
;* r15   assigned to $O$R4
;* r9    assigned to $O$S3
;* r9    assigned to $O$S1
;* r9    assigned to $O$S2
;* r12   assigned to setting
$C$DW$182	.dwtag  DW_TAG_variable
	.dwattr $C$DW$182, DW_AT_name("setting")
	.dwattr $C$DW$182, DW_AT_TI_symbol_name("setting")
	.dwattr $C$DW$182, DW_AT_type(*$C$DW$T$147)
	.dwattr $C$DW$182, DW_AT_location[DW_OP_reg12]

;* r9    assigned to available
$C$DW$183	.dwtag  DW_TAG_variable
	.dwattr $C$DW$183, DW_AT_name("available")
	.dwattr $C$DW$183, DW_AT_TI_symbol_name("available")
	.dwattr $C$DW$183, DW_AT_type(*$C$DW$T$105)
	.dwattr $C$DW$183, DW_AT_location[DW_OP_reg9]

;* r10   assigned to id
$C$DW$184	.dwtag  DW_TAG_variable
	.dwattr $C$DW$184, DW_AT_name("id")
	.dwattr $C$DW$184, DW_AT_TI_symbol_name("id")
	.dwattr $C$DW$184, DW_AT_type(*$C$DW$T$630)
	.dwattr $C$DW$184, DW_AT_location[DW_OP_reg10]

;* r15   assigned to $O$Z3
	.dwpsn	file "../grbl/settings.c",line 1397,column 20,is_stmt,isa 0
        MOV.B     #0,r9                 ; [] |1397| 
	.dwpsn	file "../grbl/settings.c",line 1399,column 17,is_stmt,isa 0
        TSTA      r12                   ; [] |1399| 
        JEQ       $C$L102               ; [] |1399| 
                                          ; [] |1399| 
;* --------------------------------------------------------------------------*
	.dwpsn	file "../grbl/settings.c",line 1049,column 1,is_stmt,isa 0
        MOV.W     @r12,r10              ; [] |1049| 
        CMP.W     #101,r10              ; [] |1049| 
        JLO       $C$L90                ; [] |1049| 
                                          ; [] |1049| 
;* --------------------------------------------------------------------------*
        CMP.W     #174,r10              ; [] |1049| 
        JLO       $C$L92                ; [] |1049| 
                                          ; [] |1049| 
;* --------------------------------------------------------------------------*
$C$L90:    
        CMP.W     #201,r10              ; [] |1049| 
        JLO       $C$L91                ; [] |1049| 
                                          ; [] |1049| 
;* --------------------------------------------------------------------------*
        CMP.W     #294,r10              ; [] |1049| 
        JLO       $C$L92                ; [] |1049| 
                                          ; [] |1049| 
;* --------------------------------------------------------------------------*
$C$L91:    
	.dwpsn	file "../grbl/settings.c",line 1053,column 10,is_stmt,isa 0
        CMP.W     #401,r10              ; [] |1053| 
        JLO       $C$L93                ; [] |1053| 
                                          ; [] |1053| 
;* --------------------------------------------------------------------------*
        CMP.W     #450,r10              ; [] |1053| 
        JHS       $C$L93                ; [] |1053| 
                                          ; [] |1053| 
;* --------------------------------------------------------------------------*
	.dwpsn	file "../grbl/settings.c",line 1054,column 9,is_stmt,isa 0
        MOVA      r10,r12               ; [] |1054| 
        MOV.W     #10,r13               ; [] |1054| 
$C$DW$185	.dwtag  DW_TAG_TI_branch
	.dwattr $C$DW$185, DW_AT_low_pc(0x00)
	.dwattr $C$DW$185, DW_AT_name("__mspabi_remu")
	.dwattr $C$DW$185, DW_AT_TI_call

        CALLA     #__mspabi_remu        ; [] |1054| 
                                          ; [] |1054| 
        MOVA      r14,r10               ; [] |1054| 
        ADD.W     #400,r10              ; [] |1054| 
        JMP       $C$L93                ; [] |1054| 
                                          ; [] |1054| 
;* --------------------------------------------------------------------------*
$C$L92:    
	.dwpsn	file "../grbl/settings.c",line 1052,column 9,is_stmt,isa 0
        MOVA      r10,r12               ; [] |1052| 
        MOV.W     #10,r13               ; [] |1052| 
$C$DW$186	.dwtag  DW_TAG_TI_branch
	.dwattr $C$DW$186, DW_AT_low_pc(0x00)
	.dwattr $C$DW$186, DW_AT_name("__mspabi_remu")
	.dwattr $C$DW$186, DW_AT_TI_call

        CALLA     #__mspabi_remu        ; [] |1052| 
                                          ; [] |1052| 
        SUB.W     r14,r10               ; [] |1052| 
;* --------------------------------------------------------------------------*
$C$L93:    
	.dwpsn	file "../grbl/settings.c",line 1056,column 5,is_stmt,isa 0
        MOVA      r10,r15               ; [] |1056| 
	.dwpsn	file "../grbl/settings.c",line 1399,column 17,is_stmt,isa 0
        CMP.W     #39,r15               ; [] |1399| 
        JGE       $C$L94                ; [] |1399| 
                                          ; [] |1399| 
;* --------------------------------------------------------------------------*
        CMP.W     #38,r15               ; [] |1399| 
        JEQ       $C$L99                ; [] |1399| 
                                          ; [] |1399| 
;* --------------------------------------------------------------------------*
        SUB.W     #6,r15                ; [] |1399| 
        JEQ       $C$L98                ; [] |1399| 
                                          ; [] |1399| 
;* --------------------------------------------------------------------------*
        SUB.W     #1,r15                ; [] |1399| 
        JEQ       $C$L101               ; [] |1399| 
                                          ; [] |1399| 
;* --------------------------------------------------------------------------*
        SUB.W     #1,r15                ; [] |1399| 
        JEQ       $C$L96                ; [] |1399| 
                                          ; [] |1399| 
;* --------------------------------------------------------------------------*
        SUB.W     #11,r15               ; [] |1399| 
        JEQ       $C$L98                ; [] |1399| 
                                          ; [] |1399| 
;* --------------------------------------------------------------------------*
        SUB.W     #11,r15               ; [] |1399| 
        CMP.W     #2,r15                ; [] |1399| 
        JLO       $C$L100               ; [] |1399| 
                                          ; [] |1399| 
;* --------------------------------------------------------------------------*
        SUB.W     #3,r15                ; [] |1399| 
        CMP.W     #4,r15                ; [] |1399| 
        JLO       $C$L100               ; [] |1399| 
                                          ; [] |1399| 
;* --------------------------------------------------------------------------*
        JMP       $C$L102               ; [] |1399| 
                                          ; [] |1399| 
;* --------------------------------------------------------------------------*
$C$L94:    
        SUB.W     #65,r15               ; [] |1399| 
        JEQ       $C$L98                ; [] |1399| 
                                          ; [] |1399| 
;* --------------------------------------------------------------------------*
        SUB.W     #105,r15              ; [] |1399| 
        JEQ       $C$L95                ; [] |1399| 
                                          ; [] |1399| 
;* --------------------------------------------------------------------------*
        SUB.W     #170,r15              ; [] |1399| 
        JEQ       $C$L97                ; [] |1399| 
                                          ; [] |1399| 
;* --------------------------------------------------------------------------*
        SUB.W     #7,r15                ; [] |1399| 
        CMP.W     #3,r15                ; [] |1399| 
        JLO       $C$L95                ; [] |1399| 
                                          ; [] |1399| 
;* --------------------------------------------------------------------------*
        SUB.W     #47,r15               ; [] |1399| 
        JNE       $C$L102               ; [] |1399| 
                                          ; [] |1399| 
;* --------------------------------------------------------------------------*
	.dwpsn	file "../grbl/settings.c",line 1459,column 13,is_stmt,isa 0
        MOV.B     &hal+402,r15          ; [] |1459| 
        RRUM.W    #3,r15                ; [] |1459| 
        BIT.W     #1,r15                ; [] |1459| 
        JNE       $C$L102               ; [] |1459| 
                                          ; [] |1459| 
;* --------------------------------------------------------------------------*
        MOV.B     &hal+399,r15          ; [] |1459| 
        RRUM.W    #2,r15                ; [] |1459| 
        AND.W     #1,r15                ; [] |1459| 
        TST.W     r15                   ; [] |1459| 
        JEQ       $C$L102               ; [] |1459| 
                                          ; [] |1459| 
;* --------------------------------------------------------------------------*
        MOV.B     #1,r9                 ; [] |1459| 
	.dwpsn	file "../grbl/settings.c",line 1460,column 13,is_stmt,isa 0
        JMP       $C$L102               ; [] |1460| 
                                          ; [] |1460| 
;* --------------------------------------------------------------------------*
$C$L95:    
	.dwpsn	file "../grbl/settings.c",line 1435,column 13,is_stmt,isa 0
        TSTX.A    &hal+154              ; [] |1435| 
        JEQ       $C$L102               ; [] |1435| 
                                          ; [] |1435| 
;* --------------------------------------------------------------------------*
        MOVX.A    SP,r12                ; [] |1435| 
        MOV.B     #1,r13                ; [] |1435| 
$C$DW$187	.dwtag  DW_TAG_TI_branch
	.dwattr $C$DW$187, DW_AT_low_pc(0x00)
	.dwattr $C$DW$187, DW_AT_TI_call
	.dwattr $C$DW$187, DW_AT_TI_indirect

        CALLA     &hal+154              ; [] |1435| 
                                          ; [] |1435| 
        MOV.B     0(SP),r15             ; [] |1435| 
        TST.B     r15                   ; [] |1435| 
        JEQ       $C$L102               ; [] |1435| 
                                          ; [] |1435| 
;* --------------------------------------------------------------------------*
        MOV.B     #1,r9                 ; [] |1435| 
	.dwpsn	file "../grbl/settings.c",line 1437,column 13,is_stmt,isa 0
        JMP       $C$L102               ; [] |1437| 
                                          ; [] |1437| 
;* --------------------------------------------------------------------------*
$C$L96:    
	.dwpsn	file "../grbl/settings.c",line 1402,column 13,is_stmt,isa 0
        TSTX.A    &hal+154              ; [] |1402| 
        JEQ       $C$L102               ; [] |1402| 
                                          ; [] |1402| 
;* --------------------------------------------------------------------------*
        MOVX.A    SP,r12                ; [] |1402| 
        MOV.B     #0,r13                ; [] |1402| 
$C$DW$188	.dwtag  DW_TAG_TI_branch
	.dwattr $C$DW$188, DW_AT_low_pc(0x00)
	.dwattr $C$DW$188, DW_AT_TI_call
	.dwattr $C$DW$188, DW_AT_TI_indirect

        CALLA     &hal+154              ; [] |1402| 
                                          ; [] |1402| 
        MOV.B     0(SP),r15             ; [] |1402| 
        TST.B     r15                   ; [] |1402| 
        JEQ       $C$L102               ; [] |1402| 
                                          ; [] |1402| 
;* --------------------------------------------------------------------------*
        MOV.B     #1,r9                 ; [] |1402| 
	.dwpsn	file "../grbl/settings.c",line 1403,column 13,is_stmt,isa 0
        JMP       $C$L102               ; [] |1403| 
                                          ; [] |1403| 
;* --------------------------------------------------------------------------*
$C$L97:    
	.dwpsn	file "../grbl/settings.c",line 1455,column 13,is_stmt,isa 0
        MOV.B     &hal+399,r9           ; [] |1455| 
        RRUM.W    #2,r9                 ; [] |1455| 
        AND.W     #1,r9                 ; [] |1455| 
	.dwpsn	file "../grbl/settings.c",line 1456,column 13,is_stmt,isa 0
        JMP       $C$L102               ; [] |1456| 
                                          ; [] |1456| 
;* --------------------------------------------------------------------------*
$C$L98:    
	.dwpsn	file "../grbl/settings.c",line 1415,column 13,is_stmt,isa 0
        TSTX.A    &hal+246              ; [] |1415| 
        JEQ       $C$L102               ; [] |1415| 
                                          ; [] |1415| 
;* --------------------------------------------------------------------------*
        MOV.B     #1,r9                 ; [] |1415| 
	.dwpsn	file "../grbl/settings.c",line 1416,column 13,is_stmt,isa 0
        JMP       $C$L102               ; [] |1416| 
                                          ; [] |1416| 
;* --------------------------------------------------------------------------*
$C$L99:    
	.dwpsn	file "../grbl/settings.c",line 1419,column 13,is_stmt,isa 0
        MOV.B     &hal+399,r15          ; [] |1419| 
        RRUM.W    #4,r15                ; [] |1419| 
        AND.W     #1,r15                ; [] |1419| 
        MOV.B     &hal+400,r9           ; [] |1419| 
        RRUM.W    #2,r9                 ; [] |1419| 
        AND.W     #1,r9                 ; [] |1419| 
        OR.B      r15,r9                ; [] |1419| 
	.dwpsn	file "../grbl/settings.c",line 1420,column 13,is_stmt,isa 0
        JMP       $C$L102               ; [] |1420| 
                                          ; [] |1420| 
;* --------------------------------------------------------------------------*
$C$L100:    
	.dwpsn	file "../grbl/settings.c",line 1428,column 13,is_stmt,isa 0
        MOV.B     &hal+398,r9           ; [] |1428| 
        RRUM.W    #1,r9                 ; [] |1428| 
        AND.W     #1,r9                 ; [] |1428| 
	.dwpsn	file "../grbl/settings.c",line 1429,column 13,is_stmt,isa 0
        JMP       $C$L102               ; [] |1429| 
                                          ; [] |1429| 
;* --------------------------------------------------------------------------*
$C$L101:    
	.dwpsn	file "../grbl/settings.c",line 1406,column 13,is_stmt,isa 0
        MOV.B     &hal+398,r9           ; [] |1406| 
        RRUM.W    #1,r9                 ; [] |1406| 
        AND.W     #1,r9                 ; [] |1406| 
;* --------------------------------------------------------------------------*
$C$L102:    
	.dwpsn	file "../grbl/settings.c",line 1466,column 5,is_stmt,isa 0
        MOVA      r9,r12                ; [] |1466| 
	.dwpsn	file "../grbl/settings.c",line 1467,column 1,is_stmt,isa 0
        ADDA      #2,SP                 ; [] 
	.dwcfi	cfa_offset, 12
        POPM.A    #2,r10                ; [] 
	.dwcfi	restore_reg, 9
	.dwcfi	restore_reg, 10
	.dwcfi	cfa_offset, 4
$C$DW$189	.dwtag  DW_TAG_TI_branch
	.dwattr $C$DW$189, DW_AT_low_pc(0x00)
	.dwattr $C$DW$189, DW_AT_TI_return

        RETA      ; [] 
        ; [] 
	.dwattr $C$DW$180, DW_AT_TI_end_file("../grbl/settings.c")
	.dwattr $C$DW$180, DW_AT_TI_end_line(0x5bb)
	.dwattr $C$DW$180, DW_AT_TI_end_column(0x01)
	.dwendentry
	.dwendtag $C$DW$180

	.sect	".text:set_ganged_dir_invert"
	.clink

$C$DW$190	.dwtag  DW_TAG_subprogram
	.dwattr $C$DW$190, DW_AT_name("set_ganged_dir_invert")
	.dwattr $C$DW$190, DW_AT_low_pc(set_ganged_dir_invert)
	.dwattr $C$DW$190, DW_AT_high_pc(0x00)
	.dwattr $C$DW$190, DW_AT_TI_symbol_name("set_ganged_dir_invert")
	.dwattr $C$DW$190, DW_AT_type(*$C$DW$T$132)
	.dwattr $C$DW$190, DW_AT_TI_begin_file("../grbl/settings.c")
	.dwattr $C$DW$190, DW_AT_TI_begin_line(0x2f4)
	.dwattr $C$DW$190, DW_AT_TI_begin_column(0x16)
	.dwattr $C$DW$190, DW_AT_decl_file("../grbl/settings.c")
	.dwattr $C$DW$190, DW_AT_decl_line(0x2f4)
	.dwattr $C$DW$190, DW_AT_decl_column(0x16)
	.dwattr $C$DW$190, DW_AT_TI_max_frame_size(0x0a)
	.dwpsn	file "../grbl/settings.c",line 757,column 1,is_stmt,address set_ganged_dir_invert,isa 0

	.dwfde $C$DW$CIE, set_ganged_dir_invert
$C$DW$191	.dwtag  DW_TAG_formal_parameter
	.dwattr $C$DW$191, DW_AT_name("id")
	.dwattr $C$DW$191, DW_AT_TI_symbol_name("id")
	.dwattr $C$DW$191, DW_AT_type(*$C$DW$T$630)
	.dwattr $C$DW$191, DW_AT_location[DW_OP_reg12]

$C$DW$192	.dwtag  DW_TAG_formal_parameter
	.dwattr $C$DW$192, DW_AT_name("int_value")
	.dwattr $C$DW$192, DW_AT_TI_symbol_name("int_value")
	.dwattr $C$DW$192, DW_AT_type(*$C$DW$T$149)
	.dwattr $C$DW$192, DW_AT_location[DW_OP_reg13]


;*****************************************************************************
;* FUNCTION NAME: set_ganged_dir_invert                                      *
;*                                                                           *
;*   Regs Modified     : SP,SR,r10,r11,r12,r13,r14,r15                       *
;*   Regs Used         : SP,SR,r10,r11,r12,r13,r14,r15                       *
;*   Local Frame Size  : 0 Args + 2 Auto + 4 Save = 6 byte                   *
;*****************************************************************************
set_ganged_dir_invert:
;* --------------------------------------------------------------------------*
	.dwcfi	cfa_offset, 4
	.dwcfi	save_reg_to_mem, 16, -4
        PUSHM.A   #1,r10                ; [] 
	.dwcfi	save_reg_to_mem, 10, -8
	.dwcfi	cfa_offset, 8
        SUBA      #2,SP                 ; [] 
	.dwcfi	cfa_offset, 10
;* r10   assigned to int_value
$C$DW$193	.dwtag  DW_TAG_variable
	.dwattr $C$DW$193, DW_AT_name("int_value")
	.dwattr $C$DW$193, DW_AT_TI_symbol_name("int_value")
	.dwattr $C$DW$193, DW_AT_type(*$C$DW$T$149)
	.dwattr $C$DW$193, DW_AT_location[DW_OP_reg10]

;* r15   assigned to $O$Z1
        MOVA      r13,r10               ; [] |757| 
	.dwpsn	file "../grbl/settings.c",line 758,column 5,is_stmt,isa 0
        TSTX.A    &hal+154              ; [] |758| 
        JEQ       $C$L103               ; [] |758| 
                                          ; [] |758| 
;* --------------------------------------------------------------------------*
	.dwpsn	file "../grbl/settings.c",line 761,column 5,is_stmt,isa 0
        MOVX.A    SP,r12                ; [] |761| 
        MOV.B     #0,r13                ; [] |761| 
$C$DW$194	.dwtag  DW_TAG_TI_branch
	.dwattr $C$DW$194, DW_AT_low_pc(0x00)
	.dwattr $C$DW$194, DW_AT_TI_call
	.dwattr $C$DW$194, DW_AT_TI_indirect

        CALLA     &hal+154              ; [] |761| 
                                          ; [] |761| 
        MOV.B     0(SP),r15             ; [] |761| 
        AND.B     r10,r15               ; [] |761| 
        MOV.B     r15,&settings+220     ; [] |761| 
	.dwpsn	file "../grbl/settings.c",line 763,column 5,is_stmt,isa 0
        MOV.W     #0,r12                ; [] |763| 
        JMP       $C$L104               ; [] |763| 
                                          ; [] |763| 
;* --------------------------------------------------------------------------*
$C$L103:    
	.dwpsn	file "../grbl/settings.c",line 759,column 9,is_stmt,isa 0
        MOV.W     #53,r12               ; [] |759| 
;* --------------------------------------------------------------------------*
$C$L104:    
	.dwpsn	file "../grbl/settings.c",line 764,column 1,is_stmt,isa 0
        ADDA      #2,SP                 ; [] 
	.dwcfi	cfa_offset, 8
        POPM.A    #1,r10                ; [] 
	.dwcfi	restore_reg, 10
	.dwcfi	cfa_offset, 4
$C$DW$195	.dwtag  DW_TAG_TI_branch
	.dwattr $C$DW$195, DW_AT_low_pc(0x00)
	.dwattr $C$DW$195, DW_AT_TI_return

        RETA      ; [] 
        ; [] 
	.dwattr $C$DW$190, DW_AT_TI_end_file("../grbl/settings.c")
	.dwattr $C$DW$190, DW_AT_TI_end_line(0x2fc)
	.dwattr $C$DW$190, DW_AT_TI_end_column(0x01)
	.dwendentry
	.dwendtag $C$DW$190

	.sect	".text:set_hard_limits_enable"
	.clink

$C$DW$196	.dwtag  DW_TAG_subprogram
	.dwattr $C$DW$196, DW_AT_name("set_hard_limits_enable")
	.dwattr $C$DW$196, DW_AT_low_pc(set_hard_limits_enable)
	.dwattr $C$DW$196, DW_AT_high_pc(0x00)
	.dwattr $C$DW$196, DW_AT_TI_symbol_name("set_hard_limits_enable")
	.dwattr $C$DW$196, DW_AT_type(*$C$DW$T$132)
	.dwattr $C$DW$196, DW_AT_TI_begin_file("../grbl/settings.c")
	.dwattr $C$DW$196, DW_AT_TI_begin_line(0x340)
	.dwattr $C$DW$196, DW_AT_TI_begin_column(0x16)
	.dwattr $C$DW$196, DW_AT_decl_file("../grbl/settings.c")
	.dwattr $C$DW$196, DW_AT_decl_line(0x340)
	.dwattr $C$DW$196, DW_AT_decl_column(0x16)
	.dwattr $C$DW$196, DW_AT_TI_max_frame_size(0x04)
	.dwpsn	file "../grbl/settings.c",line 833,column 1,is_stmt,address set_hard_limits_enable,isa 0

	.dwfde $C$DW$CIE, set_hard_limits_enable
$C$DW$197	.dwtag  DW_TAG_formal_parameter
	.dwattr $C$DW$197, DW_AT_name("id")
	.dwattr $C$DW$197, DW_AT_TI_symbol_name("id")
	.dwattr $C$DW$197, DW_AT_type(*$C$DW$T$630)
	.dwattr $C$DW$197, DW_AT_location[DW_OP_reg12]

$C$DW$198	.dwtag  DW_TAG_formal_parameter
	.dwattr $C$DW$198, DW_AT_name("int_value")
	.dwattr $C$DW$198, DW_AT_TI_symbol_name("int_value")
	.dwattr $C$DW$198, DW_AT_type(*$C$DW$T$149)
	.dwattr $C$DW$198, DW_AT_location[DW_OP_reg13]


;*****************************************************************************
;* FUNCTION NAME: set_hard_limits_enable                                     *
;*                                                                           *
;*   Regs Modified     : SP,SR,r11,r12,r13,r14,r15                           *
;*   Regs Used         : SP,SR,r11,r12,r13,r14,r15                           *
;*   Local Frame Size  : 0 Args + 0 Auto + 0 Save = 0 byte                   *
;*****************************************************************************
set_hard_limits_enable:
;* --------------------------------------------------------------------------*
	.dwcfi	cfa_offset, 4
	.dwcfi	save_reg_to_mem, 16, -4
;* r13   assigned to int_value
$C$DW$199	.dwtag  DW_TAG_variable
	.dwattr $C$DW$199, DW_AT_name("int_value")
	.dwattr $C$DW$199, DW_AT_TI_symbol_name("int_value")
	.dwattr $C$DW$199, DW_AT_type(*$C$DW$T$149)
	.dwattr $C$DW$199, DW_AT_location[DW_OP_reg13]

	.dwpsn	file "../grbl/settings.c",line 834,column 5,is_stmt,isa 0
        MOV.B     &settings+272,r14     ; [] |834| 
        BIC.B     #1,r14                ; [] |834| 
        MOVA      r13,r15               ; [] |834| 
        AND.B     #1,r15                ; [] |834| 
        AND.B     #1,r15                ; [] |834| 
        OR.B      r15,r14               ; [] |834| 
        MOV.B     r14,&settings+272     ; [] |834| 
	.dwpsn	file "../grbl/settings.c",line 836,column 5,is_stmt,isa 0
        MOV.B     &settings+272,r15     ; [] |836| 
        BIC.B     #4,r15                ; [] |836| 
        RRUM.W    #1,r13                ; [] |836| 
        AND.B     #1,r13                ; [] |836| 
        AND.B     #1,r13                ; [] |836| 
        RPT #2 || RLAX.B r13 ; [] |836| 
        OR.B      r15,r13               ; [] |836| 
        MOV.B     r13,&settings+272     ; [] |836| 
	.dwpsn	file "../grbl/settings.c",line 838,column 5,is_stmt,isa 0
        MOV.W     #1,r12                ; [] |838| 
        AND.B     &settings+272,r12     ; [] |838| 
        MOV.B     #0,r13                ; [] |838| 
$C$DW$200	.dwtag  DW_TAG_TI_branch
	.dwattr $C$DW$200, DW_AT_low_pc(0x00)
	.dwattr $C$DW$200, DW_AT_TI_call
	.dwattr $C$DW$200, DW_AT_TI_indirect

        CALLA     &hal+66               ; [] |838| 
                                          ; [] |838| 
	.dwpsn	file "../grbl/settings.c",line 840,column 5,is_stmt,isa 0
        MOV.W     #0,r12                ; [] |840| 
	.dwpsn	file "../grbl/settings.c",line 841,column 1,is_stmt,isa 0
$C$DW$201	.dwtag  DW_TAG_TI_branch
	.dwattr $C$DW$201, DW_AT_low_pc(0x00)
	.dwattr $C$DW$201, DW_AT_TI_return

        RETA      ; [] 
        ; [] 
	.dwattr $C$DW$196, DW_AT_TI_end_file("../grbl/settings.c")
	.dwattr $C$DW$196, DW_AT_TI_end_line(0x349)
	.dwattr $C$DW$196, DW_AT_TI_end_column(0x01)
	.dwendentry
	.dwendtag $C$DW$196

	.sect	".text:settings_is_group_available"
	.clink
	.global	settings_is_group_available

$C$DW$202	.dwtag  DW_TAG_subprogram
	.dwattr $C$DW$202, DW_AT_name("settings_is_group_available")
	.dwattr $C$DW$202, DW_AT_low_pc(settings_is_group_available)
	.dwattr $C$DW$202, DW_AT_high_pc(0x00)
	.dwattr $C$DW$202, DW_AT_TI_symbol_name("settings_is_group_available")
	.dwattr $C$DW$202, DW_AT_external
	.dwattr $C$DW$202, DW_AT_type(*$C$DW$T$105)
	.dwattr $C$DW$202, DW_AT_TI_begin_file("../grbl/settings.c")
	.dwattr $C$DW$202, DW_AT_TI_begin_line(0x692)
	.dwattr $C$DW$202, DW_AT_TI_begin_column(0x06)
	.dwattr $C$DW$202, DW_AT_decl_file("../grbl/settings.c")
	.dwattr $C$DW$202, DW_AT_decl_line(0x692)
	.dwattr $C$DW$202, DW_AT_decl_column(0x06)
	.dwattr $C$DW$202, DW_AT_TI_max_frame_size(0x16)
	.dwpsn	file "../grbl/settings.c",line 1683,column 1,is_stmt,address settings_is_group_available,isa 0

	.dwfde $C$DW$CIE, settings_is_group_available
$C$DW$203	.dwtag  DW_TAG_formal_parameter
	.dwattr $C$DW$203, DW_AT_name("group")
	.dwattr $C$DW$203, DW_AT_TI_symbol_name("group")
	.dwattr $C$DW$203, DW_AT_type(*$C$DW$T$23)
	.dwattr $C$DW$203, DW_AT_location[DW_OP_reg12]


;*****************************************************************************
;* FUNCTION NAME: settings_is_group_available                                *
;*                                                                           *
;*   Regs Modified     : SP,SR,r7,r8,r9,r10,r11,r12,r13,r14,r15              *
;*   Regs Used         : SP,SR,r7,r8,r9,r10,r11,r12,r13,r14,r15              *
;*   Local Frame Size  : 0 Args + 2 Auto + 16 Save = 18 byte                 *
;*****************************************************************************
settings_is_group_available:
;* --------------------------------------------------------------------------*
	.dwcfi	cfa_offset, 4
	.dwcfi	save_reg_to_mem, 16, -4
        PUSHM.A   #4,r10                ; [] 
	.dwcfi	save_reg_to_mem, 10, -8
	.dwcfi	save_reg_to_mem, 9, -12
	.dwcfi	save_reg_to_mem, 8, -16
	.dwcfi	save_reg_to_mem, 7, -20
	.dwcfi	cfa_offset, 20
        SUBA      #2,SP                 ; [] 
	.dwcfi	cfa_offset, 22
;* r10   assigned to $O$S2
;* r10   assigned to $O$S1
;* r9    assigned to group
$C$DW$204	.dwtag  DW_TAG_variable
	.dwattr $C$DW$204, DW_AT_name("group")
	.dwattr $C$DW$204, DW_AT_TI_symbol_name("group")
	.dwattr $C$DW$204, DW_AT_type(*$C$DW$T$23)
	.dwattr $C$DW$204, DW_AT_location[DW_OP_reg9]

;* r10   assigned to available
$C$DW$205	.dwtag  DW_TAG_variable
	.dwattr $C$DW$205, DW_AT_name("available")
	.dwattr $C$DW$205, DW_AT_TI_symbol_name("available")
	.dwattr $C$DW$205, DW_AT_type(*$C$DW$T$105)
	.dwattr $C$DW$205, DW_AT_location[DW_OP_reg10]

;* r8    assigned to idx
$C$DW$206	.dwtag  DW_TAG_variable
	.dwattr $C$DW$206, DW_AT_name("idx")
	.dwattr $C$DW$206, DW_AT_TI_symbol_name("idx")
	.dwattr $C$DW$206, DW_AT_type(*$C$DW$T$149)
	.dwattr $C$DW$206, DW_AT_location[DW_OP_reg8]

;* r7    assigned to details
$C$DW$207	.dwtag  DW_TAG_variable
	.dwattr $C$DW$207, DW_AT_name("details")
	.dwattr $C$DW$207, DW_AT_TI_symbol_name("details")
	.dwattr $C$DW$207, DW_AT_type(*$C$DW$T$206)
	.dwattr $C$DW$207, DW_AT_location[DW_OP_reg7]

;* r10   assigned to $O$S1
;* r12   assigned to setting
$C$DW$208	.dwtag  DW_TAG_variable
	.dwattr $C$DW$208, DW_AT_name("setting")
	.dwattr $C$DW$208, DW_AT_TI_symbol_name("setting")
	.dwattr $C$DW$208, DW_AT_type(*$C$DW$T$147)
	.dwattr $C$DW$208, DW_AT_location[DW_OP_reg12]

;* r15   assigned to $O$Z4
        MOVA      r12,r9                ; [] |1683| 
	.dwpsn	file "../grbl/settings.c",line 1684,column 20,is_stmt,isa 0
        MOV.B     #0,r10                ; [] |1684| 
	.dwpsn	file "../grbl/settings.c",line 1686,column 5,is_stmt,isa 0
        MOVA      r9,r15                ; [] |1686| 
        CMP.W     #12,r15               ; [] |1686| 
        JGE       $C$L105               ; [] |1686| 
                                          ; [] |1686| 
;* --------------------------------------------------------------------------*
        CMP.W     #11,r15               ; [] |1686| 
        JEQ       $C$L114               ; [] |1686| 
                                          ; [] |1686| 
;* --------------------------------------------------------------------------*
        SUB.W     #1,r15                ; [] |1686| 
        CMP.W     #3,r15                ; [] |1686| 
        JLO       $C$L114               ; [] |1686| 
                                          ; [] |1686| 
;* --------------------------------------------------------------------------*
        SUB.W     #3,r15                ; [] |1686| 
        JEQ       $C$L107               ; [] |1686| 
                                          ; [] |1686| 
;* --------------------------------------------------------------------------*
        SUB.W     #2,r15                ; [] |1686| 
        JEQ       $C$L114               ; [] |1686| 
                                          ; [] |1686| 
;* --------------------------------------------------------------------------*
        SUB.W     #1,r15                ; [] |1686| 
        JEQ       $C$L117               ; [] |1686| 
                                          ; [] |1686| 
;* --------------------------------------------------------------------------*
        SUB.W     #1,r15                ; [] |1686| 
        JEQ       $C$L116               ; [] |1686| 
                                          ; [] |1686| 
;* --------------------------------------------------------------------------*
        JMP       $C$L108               ; [] |1686| 
                                          ; [] |1686| 
;* --------------------------------------------------------------------------*
$C$L105:    
        SUB.W     #12,r15               ; [] |1686| 
        JEQ       $C$L115               ; [] |1686| 
                                          ; [] |1686| 
;* --------------------------------------------------------------------------*
        SUB.W     #2,r15                ; [] |1686| 
        JEQ       $C$L114               ; [] |1686| 
                                          ; [] |1686| 
;* --------------------------------------------------------------------------*
        SUB.W     #6,r15                ; [] |1686| 
        CMP.W     #2,r15                ; [] |1686| 
        JLO       $C$L106               ; [] |1686| 
                                          ; [] |1686| 
;* --------------------------------------------------------------------------*
        SUB.W     #9,r15                ; [] |1686| 
        CMP.W     #4,r15                ; [] |1686| 
        JLO       $C$L114               ; [] |1686| 
                                          ; [] |1686| 
;* --------------------------------------------------------------------------*
        JMP       $C$L108               ; [] |1686| 
                                          ; [] |1686| 
;* --------------------------------------------------------------------------*
$C$L106:    
	.dwpsn	file "../grbl/settings.c",line 1694,column 13,is_stmt,isa 0
        TSTX.A    &hal+378              ; [] |1694| 
        JEQ       $C$L118               ; [] |1694| 
                                          ; [] |1694| 
;* --------------------------------------------------------------------------*
$C$DW$209	.dwtag  DW_TAG_TI_branch
	.dwattr $C$DW$209, DW_AT_low_pc(0x00)
	.dwattr $C$DW$209, DW_AT_TI_call
	.dwattr $C$DW$209, DW_AT_TI_indirect

        CALLA     &hal+378              ; [] |1694| 
